ARM GAS  /var/folders/z2/7_lhr9dn53s9tj4s0rwtyswm0000gn/T//ccOZi2Cx.s 			page 1


   1              		.cpu cortex-m7
   2              		.arch armv7e-m
   3              		.fpu fpv5-d16
   4              		.eabi_attribute 28, 1
   5              		.eabi_attribute 20, 1
   6              		.eabi_attribute 21, 1
   7              		.eabi_attribute 23, 3
   8              		.eabi_attribute 24, 1
   9              		.eabi_attribute 25, 1
  10              		.eabi_attribute 26, 1
  11              		.eabi_attribute 30, 2
  12              		.eabi_attribute 34, 1
  13              		.eabi_attribute 18, 4
  14              		.file	"MPR121.cpp"
  15              		.text
  16              	.Ltext0:
  17              		.cfi_sections	.debug_frame
  18              		.section	.text._ZN5daisy18Mpr121I2CTransportD2Ev,"axG",%progbits,_ZN5daisy18Mpr121I2CTransportD5Ev
  19              		.align	1
  20              		.p2align 2,,3
  21              		.weak	_ZN5daisy18Mpr121I2CTransportD2Ev
  22              		.syntax unified
  23              		.thumb
  24              		.thumb_func
  26              	_ZN5daisy18Mpr121I2CTransportD2Ev:
  27              	.LVL0:
  28              	.LFB624:
  29              		.file 1 "./libDaisy//src/dev/mpr121.h"
   1:./libDaisy//src/dev/mpr121.h **** #pragma once
   2:./libDaisy//src/dev/mpr121.h **** #ifndef DSY_MPR121_H
   3:./libDaisy//src/dev/mpr121.h **** #define DSY_MPR121_H
   4:./libDaisy//src/dev/mpr121.h **** 
   5:./libDaisy//src/dev/mpr121.h **** // The default I2C address
   6:./libDaisy//src/dev/mpr121.h **** #define MPR121_I2CADDR_DEFAULT 0x5A        ///< default I2C address
   7:./libDaisy//src/dev/mpr121.h **** #define MPR121_TOUCH_THRESHOLD_DEFAULT 12  ///< default touch threshold value
   8:./libDaisy//src/dev/mpr121.h **** #define MPR121_RELEASE_THRESHOLD_DEFAULT 6 ///< default relese threshold value
   9:./libDaisy//src/dev/mpr121.h **** 
  10:./libDaisy//src/dev/mpr121.h **** namespace daisy
  11:./libDaisy//src/dev/mpr121.h **** {
  12:./libDaisy//src/dev/mpr121.h **** /** @addtogroup external 
  13:./libDaisy//src/dev/mpr121.h ****     @{ 
  14:./libDaisy//src/dev/mpr121.h **** */
  15:./libDaisy//src/dev/mpr121.h **** 
  16:./libDaisy//src/dev/mpr121.h **** /** I2C Transport for MPR121 */
  17:./libDaisy//src/dev/mpr121.h **** class Mpr121I2CTransport
  18:./libDaisy//src/dev/mpr121.h **** {
  19:./libDaisy//src/dev/mpr121.h ****   public:
  20:./libDaisy//src/dev/mpr121.h ****     Mpr121I2CTransport() {}
  21:./libDaisy//src/dev/mpr121.h ****     ~Mpr121I2CTransport() {}
  30              		.loc 1 21 5 view -0
  31              		.cfi_startproc
  32              		@ args = 0, pretend = 0, frame = 0
  33              		@ frame_needed = 0, uses_anonymous_args = 0
  34              		@ link register save eliminated.
  35              		.loc 1 21 28 is_stmt 0 view .LVU1
  36 0000 7047     		bx	lr
  37              		.cfi_endproc
ARM GAS  /var/folders/z2/7_lhr9dn53s9tj4s0rwtyswm0000gn/T//ccOZi2Cx.s 			page 2


  38              	.LFE624:
  40              		.weak	_ZN5daisy18Mpr121I2CTransportD1Ev
  41              		.thumb_set _ZN5daisy18Mpr121I2CTransportD1Ev,_ZN5daisy18Mpr121I2CTransportD2Ev
  42 0002 00BF     		.section	.text._ZN5daisy10TusenskonaD2Ev,"axG",%progbits,_ZN5daisy10TusenskonaD5Ev,comdat
  43              		.align	1
  44              		.p2align 2,,3
  45              		.weak	_ZN5daisy10TusenskonaD2Ev
  46              		.syntax unified
  47              		.thumb
  48              		.thumb_func
  50              	_ZN5daisy10TusenskonaD2Ev:
  51              	.LVL1:
  52              	.LFB2565:
  53              		.file 2 "tusenskona/src/tusenskona.h"
   1:tusenskona/src/tusenskona.h **** #ifndef TUSENSKONA_H
   2:tusenskona/src/tusenskona.h **** #define TUSENSKONA_H
   3:tusenskona/src/tusenskona.h **** 
   4:tusenskona/src/tusenskona.h **** #include "daisy_seed.h"
   5:tusenskona/src/tusenskona.h **** 
   6:tusenskona/src/tusenskona.h **** namespace daisy
   7:tusenskona/src/tusenskona.h **** {
   8:tusenskona/src/tusenskona.h **** 
   9:tusenskona/src/tusenskona.h **** class Tusenskona
  10:tusenskona/src/tusenskona.h **** {
  11:tusenskona/src/tusenskona.h ****   public:
  12:tusenskona/src/tusenskona.h ****     /** Switches */
  13:tusenskona/src/tusenskona.h ****     enum Sw
  14:tusenskona/src/tusenskona.h ****     {
  15:tusenskona/src/tusenskona.h ****         BUTTON_1,    /** & */
  16:tusenskona/src/tusenskona.h ****         BUTTON_2,    /** & */
  17:tusenskona/src/tusenskona.h ****         BUTTON_LAST, /** &  */
  18:tusenskona/src/tusenskona.h ****     };
  19:tusenskona/src/tusenskona.h **** 
  20:tusenskona/src/tusenskona.h ****     /** Knobs */
  21:tusenskona/src/tusenskona.h ****     enum Knob
  22:tusenskona/src/tusenskona.h ****     {
  23:tusenskona/src/tusenskona.h ****         KNOB_1,    /** &  */
  24:tusenskona/src/tusenskona.h ****         KNOB_2,    /** & */
  25:tusenskona/src/tusenskona.h ****         KNOB_3,    /** & */
  26:tusenskona/src/tusenskona.h ****         KNOB_4,    /** & */
  27:tusenskona/src/tusenskona.h ****         KNOB_LAST, /** & */
  28:tusenskona/src/tusenskona.h ****     };
  29:tusenskona/src/tusenskona.h **** 
  30:tusenskona/src/tusenskona.h ****     Tusenskona() {}
  31:tusenskona/src/tusenskona.h ****     ~Tusenskona() {}
  54              		.loc 2 31 5 is_stmt 1 view -0
  55              		.cfi_startproc
  56              		@ args = 0, pretend = 0, frame = 0
  57              		@ frame_needed = 0, uses_anonymous_args = 0
  58              		@ link register save eliminated.
  59              	.LBB474:
  60              	.LBI474:
  61              		.file 3 "./libDaisy//src/hid/rgb_led.h"
   1:./libDaisy//src/hid/rgb_led.h **** #pragma once
   2:./libDaisy//src/hid/rgb_led.h **** #ifndef DSY_RGB_LED_H
   3:./libDaisy//src/hid/rgb_led.h **** #define DSY_RGB_LED_H
   4:./libDaisy//src/hid/rgb_led.h **** #include "hid/led.h"
ARM GAS  /var/folders/z2/7_lhr9dn53s9tj4s0rwtyswm0000gn/T//ccOZi2Cx.s 			page 3


   5:./libDaisy//src/hid/rgb_led.h **** #include "util/color.h"
   6:./libDaisy//src/hid/rgb_led.h **** 
   7:./libDaisy//src/hid/rgb_led.h **** namespace daisy
   8:./libDaisy//src/hid/rgb_led.h **** {
   9:./libDaisy//src/hid/rgb_led.h **** /** @addtogroup feedback
  10:./libDaisy//src/hid/rgb_led.h ****     @{
  11:./libDaisy//src/hid/rgb_led.h **** */
  12:./libDaisy//src/hid/rgb_led.h **** 
  13:./libDaisy//src/hid/rgb_led.h **** /** 3x LEDs configured as an RGB for ease of use. */
  14:./libDaisy//src/hid/rgb_led.h **** class RgbLed
  15:./libDaisy//src/hid/rgb_led.h **** {
  16:./libDaisy//src/hid/rgb_led.h ****   public:
  17:./libDaisy//src/hid/rgb_led.h ****     RgbLed() {}
  18:./libDaisy//src/hid/rgb_led.h ****     ~RgbLed() {}
  62              		.loc 3 18 5 view .LVU3
  63              	.LBB475:
  64              	.LBI475:
  65              		.file 4 "./libDaisy//src/hid/led.h"
   1:./libDaisy//src/hid/led.h **** 
   2:./libDaisy//src/hid/led.h **** #pragma once
   3:./libDaisy//src/hid/led.h **** #ifndef DSY_LED_H
   4:./libDaisy//src/hid/led.h **** #define DSY_LED_H
   5:./libDaisy//src/hid/led.h **** #include "daisy_core.h"
   6:./libDaisy//src/hid/led.h **** #include "per/gpio.h"
   7:./libDaisy//src/hid/led.h **** 
   8:./libDaisy//src/hid/led.h **** /* TODO - Get this set up to work with the dev_leddriver stuff as well
   9:./libDaisy//src/hid/led.h **** - Setup Hardware PWM for pins that have it
  10:./libDaisy//src/hid/led.h **** */
  11:./libDaisy//src/hid/led.h **** 
  12:./libDaisy//src/hid/led.h **** namespace daisy
  13:./libDaisy//src/hid/led.h **** {
  14:./libDaisy//src/hid/led.h **** /**
  15:./libDaisy//src/hid/led.h ****     @brief LED Class providing simple Software PWM ability, etc \n 
  16:./libDaisy//src/hid/led.h ****     Eventually this will work with hardware PWM, and external LED Driver devices as well.
  17:./libDaisy//src/hid/led.h ****     @author shensley
  18:./libDaisy//src/hid/led.h ****     @date March 2020
  19:./libDaisy//src/hid/led.h ****     @ingroup feedback
  20:./libDaisy//src/hid/led.h **** */
  21:./libDaisy//src/hid/led.h **** class Led
  22:./libDaisy//src/hid/led.h **** {
  23:./libDaisy//src/hid/led.h ****   public:
  24:./libDaisy//src/hid/led.h ****     Led() {}
  25:./libDaisy//src/hid/led.h ****     ~Led() {}
  66              		.loc 4 25 5 view .LVU4
  67              		.loc 4 25 5 is_stmt 0 view .LVU5
  68              	.LBE475:
  69              	.LBB476:
  70              	.LBI476:
  71              		.loc 4 25 5 is_stmt 1 view .LVU6
  72              		.loc 4 25 5 is_stmt 0 view .LVU7
  73              	.LBE476:
  74              	.LBB477:
  75              	.LBI477:
  76              		.loc 4 25 5 is_stmt 1 view .LVU8
  77              		.loc 4 25 5 is_stmt 0 view .LVU9
  78              	.LBE477:
  79              	.LBE474:
ARM GAS  /var/folders/z2/7_lhr9dn53s9tj4s0rwtyswm0000gn/T//ccOZi2Cx.s 			page 4


  80              	.LBB478:
  81              	.LBI478:
  82              		.file 5 "./libDaisy//src/hid/switch.h"
   1:./libDaisy//src/hid/switch.h **** #pragma once
   2:./libDaisy//src/hid/switch.h **** #ifndef DSY_SWITCH_H
   3:./libDaisy//src/hid/switch.h **** #define DSY_SWITCH_H
   4:./libDaisy//src/hid/switch.h **** #include "daisy_core.h"
   5:./libDaisy//src/hid/switch.h **** #include "per/gpio.h"
   6:./libDaisy//src/hid/switch.h **** #include "sys/system.h"
   7:./libDaisy//src/hid/switch.h **** 
   8:./libDaisy//src/hid/switch.h **** namespace daisy
   9:./libDaisy//src/hid/switch.h **** {
  10:./libDaisy//src/hid/switch.h **** /** 
  11:./libDaisy//src/hid/switch.h ****     Generic Class for handling momentary/latching switches \n 
  12:./libDaisy//src/hid/switch.h ****     Inspired/influenced by Mutable Instruments (pichenettes) Switch classes
  13:./libDaisy//src/hid/switch.h ****     @author Stephen Hensley
  14:./libDaisy//src/hid/switch.h ****     @date December 2019
  15:./libDaisy//src/hid/switch.h ****     @ingroup controls
  16:./libDaisy//src/hid/switch.h **** */
  17:./libDaisy//src/hid/switch.h **** class Switch
  18:./libDaisy//src/hid/switch.h **** {
  19:./libDaisy//src/hid/switch.h ****   public:
  20:./libDaisy//src/hid/switch.h ****     /** Specifies the expected behavior of the switch */
  21:./libDaisy//src/hid/switch.h ****     enum Type
  22:./libDaisy//src/hid/switch.h ****     {
  23:./libDaisy//src/hid/switch.h ****         TYPE_TOGGLE,    /**< & */
  24:./libDaisy//src/hid/switch.h ****         TYPE_MOMENTARY, /**< & */
  25:./libDaisy//src/hid/switch.h ****     };
  26:./libDaisy//src/hid/switch.h ****     /** Specifies whether the pressed is HIGH or LOW. */
  27:./libDaisy//src/hid/switch.h ****     enum Polarity
  28:./libDaisy//src/hid/switch.h ****     {
  29:./libDaisy//src/hid/switch.h ****         POLARITY_NORMAL,   /**< & */
  30:./libDaisy//src/hid/switch.h ****         POLARITY_INVERTED, /**< & */
  31:./libDaisy//src/hid/switch.h ****     };
  32:./libDaisy//src/hid/switch.h **** 
  33:./libDaisy//src/hid/switch.h ****     /** Specifies whether to use built-in Pull Up/Down resistors to hold button at a given state wh
  34:./libDaisy//src/hid/switch.h ****     enum Pull
  35:./libDaisy//src/hid/switch.h ****     {
  36:./libDaisy//src/hid/switch.h ****         PULL_UP,   /**< & */
  37:./libDaisy//src/hid/switch.h ****         PULL_DOWN, /**< & */
  38:./libDaisy//src/hid/switch.h ****         PULL_NONE, /**< & */
  39:./libDaisy//src/hid/switch.h ****     };
  40:./libDaisy//src/hid/switch.h **** 
  41:./libDaisy//src/hid/switch.h ****     Switch() {}
  42:./libDaisy//src/hid/switch.h ****     ~Switch() {}
  83              		.loc 5 42 5 is_stmt 1 view .LVU10
  84              		.loc 5 42 5 is_stmt 0 view .LVU11
  85              	.LBE478:
  86              	.LBB479:
  87              	.LBI479:
  88              		.loc 5 42 5 is_stmt 1 view .LVU12
  89              		.loc 5 42 5 is_stmt 0 view .LVU13
  90              	.LBE479:
  91              	.LBB480:
  92              	.LBI480:
  93              		.file 6 "./libDaisy//src/hid/ctrl.h"
   1:./libDaisy//src/hid/ctrl.h **** #pragma once
ARM GAS  /var/folders/z2/7_lhr9dn53s9tj4s0rwtyswm0000gn/T//ccOZi2Cx.s 			page 5


   2:./libDaisy//src/hid/ctrl.h **** #ifndef DSY_KNOB_H
   3:./libDaisy//src/hid/ctrl.h **** #define DSY_KNOB_H /**< & */
   4:./libDaisy//src/hid/ctrl.h **** #include <stdint.h>
   5:./libDaisy//src/hid/ctrl.h **** 
   6:./libDaisy//src/hid/ctrl.h **** #ifdef __cplusplus
   7:./libDaisy//src/hid/ctrl.h **** namespace daisy
   8:./libDaisy//src/hid/ctrl.h **** {
   9:./libDaisy//src/hid/ctrl.h **** /**
  10:./libDaisy//src/hid/ctrl.h ****     @brief Hardware Interface for control inputs \n 
  11:./libDaisy//src/hid/ctrl.h ****     Primarily designed for ADC input controls such as \n 
  12:./libDaisy//src/hid/ctrl.h ****     potentiometers, and control voltage. \n 
  13:./libDaisy//src/hid/ctrl.h ****     @author Stephen Hensley
  14:./libDaisy//src/hid/ctrl.h ****     @date November 2019
  15:./libDaisy//src/hid/ctrl.h ****     @ingroup controls
  16:./libDaisy//src/hid/ctrl.h **** */
  17:./libDaisy//src/hid/ctrl.h **** class AnalogControl
  18:./libDaisy//src/hid/ctrl.h **** {
  19:./libDaisy//src/hid/ctrl.h ****   public:
  20:./libDaisy//src/hid/ctrl.h ****     /** Constructor */
  21:./libDaisy//src/hid/ctrl.h ****     AnalogControl() {}
  22:./libDaisy//src/hid/ctrl.h ****     /** destructor */
  23:./libDaisy//src/hid/ctrl.h ****     ~AnalogControl() {}
  94              		.loc 6 23 5 is_stmt 1 view .LVU14
  95              		.loc 6 23 5 is_stmt 0 view .LVU15
  96              	.LBE480:
  97              	.LBB481:
  98              	.LBI481:
  99              		.loc 6 23 5 is_stmt 1 view .LVU16
 100              		.loc 6 23 5 is_stmt 0 view .LVU17
 101              	.LBE481:
 102              	.LBB482:
 103              	.LBI482:
 104              		.loc 6 23 5 is_stmt 1 view .LVU18
 105              		.loc 6 23 5 is_stmt 0 view .LVU19
 106              	.LBE482:
 107              	.LBB483:
 108              	.LBI483:
 109              		.loc 6 23 5 is_stmt 1 view .LVU20
 110              		.loc 6 23 5 is_stmt 0 view .LVU21
 111              	.LBE483:
 112              	.LBB484:
 113              	.LBI484:
 114              		.file 7 "./libDaisy//src/hid/encoder.h"
   1:./libDaisy//src/hid/encoder.h **** #pragma once
   2:./libDaisy//src/hid/encoder.h **** #ifndef DSY_ENCODER_H
   3:./libDaisy//src/hid/encoder.h **** #define DSY_ENCODER_H
   4:./libDaisy//src/hid/encoder.h **** #include "daisy_core.h"
   5:./libDaisy//src/hid/encoder.h **** #include "per/gpio.h"
   6:./libDaisy//src/hid/encoder.h **** #include "hid/switch.h"
   7:./libDaisy//src/hid/encoder.h **** 
   8:./libDaisy//src/hid/encoder.h **** namespace daisy
   9:./libDaisy//src/hid/encoder.h **** {
  10:./libDaisy//src/hid/encoder.h **** /** 
  11:./libDaisy//src/hid/encoder.h ****     @brief Generic Class for handling Quadrature Encoders \n 
  12:./libDaisy//src/hid/encoder.h ****     Inspired/influenced by Mutable Instruments (pichenettes) Encoder classes
  13:./libDaisy//src/hid/encoder.h ****     @author Stephen Hensley
  14:./libDaisy//src/hid/encoder.h ****     @date December 2019
ARM GAS  /var/folders/z2/7_lhr9dn53s9tj4s0rwtyswm0000gn/T//ccOZi2Cx.s 			page 6


  15:./libDaisy//src/hid/encoder.h ****     @ingroup controls
  16:./libDaisy//src/hid/encoder.h **** */
  17:./libDaisy//src/hid/encoder.h **** class Encoder
  18:./libDaisy//src/hid/encoder.h **** {
  19:./libDaisy//src/hid/encoder.h ****   public:
  20:./libDaisy//src/hid/encoder.h ****     Encoder() {}
  21:./libDaisy//src/hid/encoder.h ****     ~Encoder() {}
 115              		.loc 7 21 5 is_stmt 1 view .LVU22
 116              	.LBB485:
 117              	.LBI485:
 118              		.loc 5 42 5 view .LVU23
 119              		.loc 5 42 5 is_stmt 0 view .LVU24
 120              	.LBE485:
 121              	.LBE484:
 122              	.LBB486:
 123              	.LBI486:
 124              		.file 8 "./libDaisy//src/daisy_seed.h"
   1:./libDaisy//src/daisy_seed.h **** #pragma once
   2:./libDaisy//src/daisy_seed.h **** #ifndef DSY_SEED_H
   3:./libDaisy//src/daisy_seed.h **** #define DSY_SEED_H
   4:./libDaisy//src/daisy_seed.h **** 
   5:./libDaisy//src/daisy_seed.h **** #include "daisy.h"
   6:./libDaisy//src/daisy_seed.h **** 
   7:./libDaisy//src/daisy_seed.h **** //Uncomment this out if you're still using the rev2 hardware
   8:./libDaisy//src/daisy_seed.h **** //#define SEED_REV2
   9:./libDaisy//src/daisy_seed.h **** 
  10:./libDaisy//src/daisy_seed.h **** namespace daisy
  11:./libDaisy//src/daisy_seed.h **** {
  12:./libDaisy//src/daisy_seed.h **** /**
  13:./libDaisy//src/daisy_seed.h ****    @brief This is the higher-level interface for the Daisy board. \n 
  14:./libDaisy//src/daisy_seed.h ****     All basic peripheral configuration/initialization is setup here. \n
  15:./libDaisy//src/daisy_seed.h **** 
  16:./libDaisy//src/daisy_seed.h ****    @ingroup boards
  17:./libDaisy//src/daisy_seed.h **** */
  18:./libDaisy//src/daisy_seed.h **** class DaisySeed
  19:./libDaisy//src/daisy_seed.h **** {
  20:./libDaisy//src/daisy_seed.h ****   public:
  21:./libDaisy//src/daisy_seed.h ****     DaisySeed() {}
  22:./libDaisy//src/daisy_seed.h ****     ~DaisySeed() {}
 125              		.loc 8 22 5 is_stmt 1 view .LVU25
 126              	.LBB487:
 127              	.LBI487:
 128              		.file 9 "./libDaisy//src/sys/system.h"
   1:./libDaisy//src/sys/system.h **** #ifndef DSY_SYSTEM_H
   2:./libDaisy//src/sys/system.h **** #define DSY_SYSTEM_H
   3:./libDaisy//src/sys/system.h **** 
   4:./libDaisy//src/sys/system.h **** #ifndef UNIT_TEST // for unit tests, a dummy implementation is provided below
   5:./libDaisy//src/sys/system.h **** 
   6:./libDaisy//src/sys/system.h **** #include <cstdint>
   7:./libDaisy//src/sys/system.h **** #include "per/tim.h"
   8:./libDaisy//src/sys/system.h **** 
   9:./libDaisy//src/sys/system.h **** namespace daisy
  10:./libDaisy//src/sys/system.h **** {
  11:./libDaisy//src/sys/system.h **** /** A handle for interacting with the Core System.
  12:./libDaisy//src/sys/system.h ****  ** This includes the Clock tree, MPU, global DMA initialization,
  13:./libDaisy//src/sys/system.h ****  ** cache handling, and any other necessary global initiailzation
  14:./libDaisy//src/sys/system.h ****  **
ARM GAS  /var/folders/z2/7_lhr9dn53s9tj4s0rwtyswm0000gn/T//ccOZi2Cx.s 			page 7


  15:./libDaisy//src/sys/system.h ****  ** @author shensley
  16:./libDaisy//src/sys/system.h ****  ** @ingroup system
  17:./libDaisy//src/sys/system.h ****  */
  18:./libDaisy//src/sys/system.h **** class System
  19:./libDaisy//src/sys/system.h **** {
  20:./libDaisy//src/sys/system.h ****   public:
  21:./libDaisy//src/sys/system.h ****     /** Contains settings for initializing the System */
  22:./libDaisy//src/sys/system.h ****     struct Config
  23:./libDaisy//src/sys/system.h ****     {
  24:./libDaisy//src/sys/system.h ****         /** Specifies the system clock frequency that feeds APB/AHB clocks, etc. */
  25:./libDaisy//src/sys/system.h ****         enum class SysClkFreq
  26:./libDaisy//src/sys/system.h ****         {
  27:./libDaisy//src/sys/system.h ****             FREQ_400MHZ,
  28:./libDaisy//src/sys/system.h ****             FREQ_480MHZ,
  29:./libDaisy//src/sys/system.h ****         };
  30:./libDaisy//src/sys/system.h **** 
  31:./libDaisy//src/sys/system.h ****         /** Method to call on the struct to set to defaults
  32:./libDaisy//src/sys/system.h ****          ** CPU Freq set to 400MHz
  33:./libDaisy//src/sys/system.h ****          ** Cache Enabled
  34:./libDaisy//src/sys/system.h ****          ** */
  35:./libDaisy//src/sys/system.h ****         void Defaults()
  36:./libDaisy//src/sys/system.h ****         {
  37:./libDaisy//src/sys/system.h ****             cpu_freq    = SysClkFreq::FREQ_400MHZ;
  38:./libDaisy//src/sys/system.h ****             use_dcache  = true;
  39:./libDaisy//src/sys/system.h ****             use_icache  = true;
  40:./libDaisy//src/sys/system.h ****             skip_clocks = false;
  41:./libDaisy//src/sys/system.h ****         }
  42:./libDaisy//src/sys/system.h **** 
  43:./libDaisy//src/sys/system.h ****         /** Method to call on the struct to set to boost mode:
  44:./libDaisy//src/sys/system.h ****          ** CPU Freq set to 480MHz
  45:./libDaisy//src/sys/system.h ****          ** Cache Enabled
  46:./libDaisy//src/sys/system.h ****          ** */
  47:./libDaisy//src/sys/system.h ****         void Boost()
  48:./libDaisy//src/sys/system.h ****         {
  49:./libDaisy//src/sys/system.h ****             cpu_freq    = SysClkFreq::FREQ_480MHZ;
  50:./libDaisy//src/sys/system.h ****             use_dcache  = true;
  51:./libDaisy//src/sys/system.h ****             use_icache  = true;
  52:./libDaisy//src/sys/system.h ****             skip_clocks = false;
  53:./libDaisy//src/sys/system.h ****         }
  54:./libDaisy//src/sys/system.h **** 
  55:./libDaisy//src/sys/system.h ****         SysClkFreq cpu_freq;
  56:./libDaisy//src/sys/system.h ****         bool       use_dcache;
  57:./libDaisy//src/sys/system.h ****         bool       use_icache;
  58:./libDaisy//src/sys/system.h ****         bool       skip_clocks;
  59:./libDaisy//src/sys/system.h ****     };
  60:./libDaisy//src/sys/system.h **** 
  61:./libDaisy//src/sys/system.h ****     /** Describes the different regions of memory available to the Daisy */
  62:./libDaisy//src/sys/system.h ****     enum MemoryRegion
  63:./libDaisy//src/sys/system.h ****     {
  64:./libDaisy//src/sys/system.h ****         INTERNAL_FLASH = 0,
  65:./libDaisy//src/sys/system.h ****         ITCMRAM,
  66:./libDaisy//src/sys/system.h ****         DTCMRAM,
  67:./libDaisy//src/sys/system.h ****         SRAM_D1,
  68:./libDaisy//src/sys/system.h ****         SRAM_D2,
  69:./libDaisy//src/sys/system.h ****         SRAM_D3,
  70:./libDaisy//src/sys/system.h ****         SDRAM,
  71:./libDaisy//src/sys/system.h ****         QSPI,
ARM GAS  /var/folders/z2/7_lhr9dn53s9tj4s0rwtyswm0000gn/T//ccOZi2Cx.s 			page 8


  72:./libDaisy//src/sys/system.h ****         INVALID_ADDRESS,
  73:./libDaisy//src/sys/system.h ****     };
  74:./libDaisy//src/sys/system.h **** 
  75:./libDaisy//src/sys/system.h ****     /** Bootloader struct for controlling bootloading parameters */
  76:./libDaisy//src/sys/system.h ****     struct BootInfo
  77:./libDaisy//src/sys/system.h ****     {
  78:./libDaisy//src/sys/system.h ****         enum class Type : uint32_t
  79:./libDaisy//src/sys/system.h ****         {
  80:./libDaisy//src/sys/system.h ****             INVALID      = 0x00000000,
  81:./libDaisy//src/sys/system.h ****             JUMP         = 0xDEADBEEF,
  82:./libDaisy//src/sys/system.h ****             SKIP_TIMEOUT = 0x5AFEB007,
  83:./libDaisy//src/sys/system.h ****             INF_TIMEOUT  = 0xB0074EFA,
  84:./libDaisy//src/sys/system.h ****         } status;
  85:./libDaisy//src/sys/system.h ****         uint32_t data;
  86:./libDaisy//src/sys/system.h ****         enum class Version : uint32_t
  87:./libDaisy//src/sys/system.h ****         {
  88:./libDaisy//src/sys/system.h ****             LT_v6_0 = 0, // Less than v6.0
  89:./libDaisy//src/sys/system.h ****             NONE,        // No bootloader present
  90:./libDaisy//src/sys/system.h ****             v6_0,        // v6.0
  91:./libDaisy//src/sys/system.h ****             v6_1,        // v6.1 or greater
  92:./libDaisy//src/sys/system.h ****             LAST
  93:./libDaisy//src/sys/system.h ****         } version;
  94:./libDaisy//src/sys/system.h ****     };
  95:./libDaisy//src/sys/system.h **** 
  96:./libDaisy//src/sys/system.h ****     System() {}
  97:./libDaisy//src/sys/system.h ****     ~System() {}
 129              		.loc 9 97 5 view .LVU26
 130              		.loc 9 97 5 is_stmt 0 view .LVU27
 131              	.LBE487:
 132              	.LBB488:
 133              	.LBI488:
 134              		.file 10 "./libDaisy//src/hid/usb.h"
   1:./libDaisy//src/hid/usb.h **** #pragma once
   2:./libDaisy//src/hid/usb.h **** #ifndef DSY_HID_USB_H
   3:./libDaisy//src/hid/usb.h **** #define DSY_HID_USB_H
   4:./libDaisy//src/hid/usb.h **** #include <stdint.h>
   5:./libDaisy//src/hid/usb.h **** #include <stdlib.h>
   6:./libDaisy//src/hid/usb.h **** 
   7:./libDaisy//src/hid/usb.h **** namespace daisy
   8:./libDaisy//src/hid/usb.h **** /** @addtogroup human_interface
   9:./libDaisy//src/hid/usb.h ****     @{
  10:./libDaisy//src/hid/usb.h **** */
  11:./libDaisy//src/hid/usb.h **** 
  12:./libDaisy//src/hid/usb.h **** {
  13:./libDaisy//src/hid/usb.h **** /** 
  14:./libDaisy//src/hid/usb.h ****     @brief Interface for initializing and using the USB Peripherals on the daisy
  15:./libDaisy//src/hid/usb.h ****     @author Stephen Hensley
  16:./libDaisy//src/hid/usb.h ****     @date December 2019
  17:./libDaisy//src/hid/usb.h **** */
  18:./libDaisy//src/hid/usb.h **** class UsbHandle
  19:./libDaisy//src/hid/usb.h **** {
  20:./libDaisy//src/hid/usb.h ****   public:
  21:./libDaisy//src/hid/usb.h ****     /** Return values for USBHandle Functions */
  22:./libDaisy//src/hid/usb.h ****     enum class Result
  23:./libDaisy//src/hid/usb.h ****     {
  24:./libDaisy//src/hid/usb.h ****         OK,
  25:./libDaisy//src/hid/usb.h ****         ERR,
ARM GAS  /var/folders/z2/7_lhr9dn53s9tj4s0rwtyswm0000gn/T//ccOZi2Cx.s 			page 9


  26:./libDaisy//src/hid/usb.h ****     };
  27:./libDaisy//src/hid/usb.h **** 
  28:./libDaisy//src/hid/usb.h ****     /** Specified which of the two USB Peripherals to initialize. */
  29:./libDaisy//src/hid/usb.h ****     enum UsbPeriph
  30:./libDaisy//src/hid/usb.h ****     {
  31:./libDaisy//src/hid/usb.h ****         FS_INTERNAL, /**< Internal pin */
  32:./libDaisy//src/hid/usb.h ****         FS_EXTERNAL, /**< FS External D+ pin is Pin 38 (GPIO32). FS External D- pin is Pin 37 (GPIO
  33:./libDaisy//src/hid/usb.h ****         FS_BOTH,     /**< Both */
  34:./libDaisy//src/hid/usb.h ****     };
  35:./libDaisy//src/hid/usb.h **** 
  36:./libDaisy//src/hid/usb.h **** 
  37:./libDaisy//src/hid/usb.h ****     /** Function called upon reception of a buffer */
  38:./libDaisy//src/hid/usb.h ****     typedef void (*ReceiveCallback)(uint8_t* buff, uint32_t* len);
  39:./libDaisy//src/hid/usb.h **** 
  40:./libDaisy//src/hid/usb.h ****     UsbHandle() {}
  41:./libDaisy//src/hid/usb.h **** 
  42:./libDaisy//src/hid/usb.h ****     ~UsbHandle() {}
 135              		.loc 10 42 5 is_stmt 1 view .LVU28
 136              		.loc 10 42 5 is_stmt 0 view .LVU29
 137              	.LBE488:
 138              	.LBB489:
 139              	.LBI489:
 140              		.file 11 "./libDaisy//src/per/adc.h"
   1:./libDaisy//src/per/adc.h **** #pragma once
   2:./libDaisy//src/per/adc.h **** #ifndef DSY_ADC_H
   3:./libDaisy//src/per/adc.h **** #define DSY_ADC_H /**< Macro */
   4:./libDaisy//src/per/adc.h **** #include <stdint.h>
   5:./libDaisy//src/per/adc.h **** #include <stdlib.h>
   6:./libDaisy//src/per/adc.h **** #include "daisy_core.h"
   7:./libDaisy//src/per/adc.h **** #include "per/gpio.h"
   8:./libDaisy//src/per/adc.h **** 
   9:./libDaisy//src/per/adc.h **** #define DSY_ADC_MAX_CHANNELS 16 /**< Maximum number of ADC channels */
  10:./libDaisy//src/per/adc.h **** 
  11:./libDaisy//src/per/adc.h **** namespace daisy
  12:./libDaisy//src/per/adc.h **** {
  13:./libDaisy//src/per/adc.h **** /** @addtogroup per_analog
  14:./libDaisy//src/per/adc.h ****     @{
  15:./libDaisy//src/per/adc.h **** */
  16:./libDaisy//src/per/adc.h **** 
  17:./libDaisy//src/per/adc.h **** /* While there may not be many configuration options here,
  18:./libDaisy//src/per/adc.h **** using a struct like this allows us to add more configuration
  19:./libDaisy//src/per/adc.h **** later without breaking existing functionality.
  20:./libDaisy//src/per/adc.h **** */
  21:./libDaisy//src/per/adc.h **** 
  22:./libDaisy//src/per/adc.h **** /** @brief   Configuration Structure for an ADC Channel 
  23:./libDaisy//src/per/adc.h ****  *  @details This can be used to configure a a single input, 
  24:./libDaisy//src/per/adc.h ****  *           or a multiplexed input, allowing up to 8 inputs on 
  25:./libDaisy//src/per/adc.h ****  *           one channel.
  26:./libDaisy//src/per/adc.h ****  *  @note    Sharing data lines to multiple muxes _is_ possible, but
  27:./libDaisy//src/per/adc.h ****  *           each channel sharing data lines must be set to the maximum
  28:./libDaisy//src/per/adc.h ****  *           number of channels, even if some multiplexers have fewer
  29:./libDaisy//src/per/adc.h ****  *           inputs connected.
  30:./libDaisy//src/per/adc.h **** */
  31:./libDaisy//src/per/adc.h **** struct AdcChannelConfig
  32:./libDaisy//src/per/adc.h **** {
  33:./libDaisy//src/per/adc.h ****     /** Which pin to use for multiplexing */
  34:./libDaisy//src/per/adc.h ****     enum MuxPin
ARM GAS  /var/folders/z2/7_lhr9dn53s9tj4s0rwtyswm0000gn/T//ccOZi2Cx.s 			page 10


  35:./libDaisy//src/per/adc.h ****     {
  36:./libDaisy//src/per/adc.h ****         MUX_SEL_0,    /**< & */
  37:./libDaisy//src/per/adc.h ****         MUX_SEL_1,    /**< & */
  38:./libDaisy//src/per/adc.h ****         MUX_SEL_2,    /**< & */
  39:./libDaisy//src/per/adc.h ****         MUX_SEL_LAST, /**< & */
  40:./libDaisy//src/per/adc.h ****     };
  41:./libDaisy//src/per/adc.h **** 
  42:./libDaisy//src/per/adc.h ****     /** \brief per channel conversion speed added to fixed time based on bitdepth, etc. */
  43:./libDaisy//src/per/adc.h ****     enum ConversionSpeed
  44:./libDaisy//src/per/adc.h ****     {
  45:./libDaisy//src/per/adc.h ****         SPEED_1CYCLES_5,
  46:./libDaisy//src/per/adc.h ****         SPEED_2CYCLES_5,
  47:./libDaisy//src/per/adc.h ****         SPEED_8CYCLES_5,
  48:./libDaisy//src/per/adc.h ****         SPEED_16CYCLES_5,
  49:./libDaisy//src/per/adc.h ****         SPEED_32CYCLES_5,
  50:./libDaisy//src/per/adc.h ****         SPEED_64CYCLES_5,
  51:./libDaisy//src/per/adc.h ****         SPEED_387CYCLES_5,
  52:./libDaisy//src/per/adc.h ****         SPEED_810CYCLES_5,
  53:./libDaisy//src/per/adc.h ****     };
  54:./libDaisy//src/per/adc.h **** 
  55:./libDaisy//src/per/adc.h ****     /** Initializes a single ADC pin as an ADC. 
  56:./libDaisy//src/per/adc.h ****     \param pin Pin to init.
  57:./libDaisy//src/per/adc.h ****     \param speed conversion speed for this pin defaults to 8.5 cycles
  58:./libDaisy//src/per/adc.h ****      */
  59:./libDaisy//src/per/adc.h ****     void InitSingle(dsy_gpio_pin pin, ConversionSpeed speed = SPEED_8CYCLES_5);
  60:./libDaisy//src/per/adc.h **** 
  61:./libDaisy//src/per/adc.h ****     /** 
  62:./libDaisy//src/per/adc.h ****     Initializes a single ADC pin as a Multiplexed ADC.
  63:./libDaisy//src/per/adc.h ****     Requires a CD405X Multiplexer connected to the pin.
  64:./libDaisy//src/per/adc.h ****     You only need to supply the mux pins that are required,
  65:./libDaisy//src/per/adc.h ****     e.g. a 4052 mux would only require mux_0 and mux_1.
  66:./libDaisy//src/per/adc.h ****     Internal Callbacks handle the pin addressing.
  67:./libDaisy//src/per/adc.h ****     \param adc_pin &
  68:./libDaisy//src/per/adc.h ****     \param mux_channels must be 1-8
  69:./libDaisy//src/per/adc.h ****     \param mux_0 First mux pin
  70:./libDaisy//src/per/adc.h ****     \param mux_1 Second mux pin
  71:./libDaisy//src/per/adc.h ****     \param mux_2 Third mux pin
  72:./libDaisy//src/per/adc.h ****     \param speed conversion speed for this pin defaults to 8.5 cycles
  73:./libDaisy//src/per/adc.h ****     */
  74:./libDaisy//src/per/adc.h ****     void InitMux(dsy_gpio_pin    adc_pin,
  75:./libDaisy//src/per/adc.h ****                  size_t          mux_channels,
  76:./libDaisy//src/per/adc.h ****                  dsy_gpio_pin    mux_0,
  77:./libDaisy//src/per/adc.h ****                  dsy_gpio_pin    mux_1 = {DSY_GPIOX, 0},
  78:./libDaisy//src/per/adc.h ****                  dsy_gpio_pin    mux_2 = {DSY_GPIOX, 0},
  79:./libDaisy//src/per/adc.h ****                  ConversionSpeed speed = SPEED_8CYCLES_5);
  80:./libDaisy//src/per/adc.h **** 
  81:./libDaisy//src/per/adc.h ****     dsy_gpio        pin_;                   /**< & */
  82:./libDaisy//src/per/adc.h ****     dsy_gpio        mux_pin_[MUX_SEL_LAST]; /**< & */
  83:./libDaisy//src/per/adc.h ****     uint8_t         mux_channels_;          /**< & */
  84:./libDaisy//src/per/adc.h ****     ConversionSpeed speed_;
  85:./libDaisy//src/per/adc.h **** };
  86:./libDaisy//src/per/adc.h **** 
  87:./libDaisy//src/per/adc.h **** /**
  88:./libDaisy//src/per/adc.h ****    @brief Handler for analog to digital conversion
  89:./libDaisy//src/per/adc.h **** */
  90:./libDaisy//src/per/adc.h **** class AdcHandle
  91:./libDaisy//src/per/adc.h **** {
ARM GAS  /var/folders/z2/7_lhr9dn53s9tj4s0rwtyswm0000gn/T//ccOZi2Cx.s 			page 11


  92:./libDaisy//src/per/adc.h ****   public:
  93:./libDaisy//src/per/adc.h ****     /** Supported oversampling amounts */
  94:./libDaisy//src/per/adc.h ****     enum OverSampling
  95:./libDaisy//src/per/adc.h ****     {
  96:./libDaisy//src/per/adc.h ****         OVS_NONE, /**< & */
  97:./libDaisy//src/per/adc.h ****         OVS_4,    /**< & */
  98:./libDaisy//src/per/adc.h ****         OVS_8,    /**< & */
  99:./libDaisy//src/per/adc.h ****         OVS_16,   /**< & */
 100:./libDaisy//src/per/adc.h ****         OVS_32,   /**< & */
 101:./libDaisy//src/per/adc.h ****         OVS_64,   /**< & */
 102:./libDaisy//src/per/adc.h ****         OVS_128,  /**< & */
 103:./libDaisy//src/per/adc.h ****         OVS_256,  /**< & */
 104:./libDaisy//src/per/adc.h ****         OVS_512,  /**< & */
 105:./libDaisy//src/per/adc.h ****         OVS_1024, /**< & */
 106:./libDaisy//src/per/adc.h ****         OVS_LAST, /**< & */
 107:./libDaisy//src/per/adc.h ****     };
 108:./libDaisy//src/per/adc.h **** 
 109:./libDaisy//src/per/adc.h ****     AdcHandle() {}
 110:./libDaisy//src/per/adc.h ****     ~AdcHandle() {}
 141              		.loc 11 110 5 is_stmt 1 view .LVU30
 142              		.loc 11 110 5 is_stmt 0 view .LVU31
 143              	.LBE489:
 144              	.LBB490:
 145              	.LBI490:
 146              		.file 12 "./libDaisy//src/hid/audio.h"
   1:./libDaisy//src/hid/audio.h **** #ifndef DSY_AUDIO_H
   2:./libDaisy//src/hid/audio.h **** #define DSY_AUDIO_H /**< & */
   3:./libDaisy//src/hid/audio.h **** 
   4:./libDaisy//src/hid/audio.h **** #include "per/sai.h"
   5:./libDaisy//src/hid/audio.h **** 
   6:./libDaisy//src/hid/audio.h **** namespace daisy
   7:./libDaisy//src/hid/audio.h **** {
   8:./libDaisy//src/hid/audio.h **** /** @brief Audio Engine Handle
   9:./libDaisy//src/hid/audio.h ****  *  @ingroup audio 
  10:./libDaisy//src/hid/audio.h ****  *  @details This class allows for higher level access to an audio engine.
  11:./libDaisy//src/hid/audio.h ****  *           If you're using a SOM like the DaisySeed or DaisyPatchSM (or any 
  12:./libDaisy//src/hid/audio.h ****  *            board that includes one of those objects) then the intialization
  13:./libDaisy//src/hid/audio.h ****  *            is already taken  care of.
  14:./libDaisy//src/hid/audio.h ****  *           If you're setting up your own custom hardware, or need to make changes
  15:./libDaisy//src/hid/audio.h ****  *           you will have to take the following steps:
  16:./libDaisy//src/hid/audio.h ****  *             1. Create and Initialize an SaiHandle or two depending on your requirements
  17:./libDaisy//src/hid/audio.h ****  *             2. Initialize the Audio Handle with the desired settings and the Initialized SaiHand
  18:./libDaisy//src/hid/audio.h ****  *             3. If the connected codec requires special configuration or initialization, do so
  19:./libDaisy//src/hid/audio.h ****  *             4. Write a callback method using either the AudioCallback or the InterleavingAudioCa
  20:./libDaisy//src/hid/audio.h ****  *             5. Start the Audio using one of the StartAudio function
  21:./libDaisy//src/hid/audio.h ****  */
  22:./libDaisy//src/hid/audio.h **** class AudioHandle
  23:./libDaisy//src/hid/audio.h **** {
  24:./libDaisy//src/hid/audio.h ****   public:
  25:./libDaisy//src/hid/audio.h ****     /** Manually configurable details about the Audio Engine */
  26:./libDaisy//src/hid/audio.h ****     /** TODO: Figure out how to get samplerate in here. */
  27:./libDaisy//src/hid/audio.h ****     struct Config
  28:./libDaisy//src/hid/audio.h ****     {
  29:./libDaisy//src/hid/audio.h ****         /** number of samples to process per callback */
  30:./libDaisy//src/hid/audio.h ****         size_t blocksize;
  31:./libDaisy//src/hid/audio.h **** 
  32:./libDaisy//src/hid/audio.h ****         /**< Sample rate of audio */
ARM GAS  /var/folders/z2/7_lhr9dn53s9tj4s0rwtyswm0000gn/T//ccOZi2Cx.s 			page 12


  33:./libDaisy//src/hid/audio.h ****         SaiHandle::Config::SampleRate samplerate;
  34:./libDaisy//src/hid/audio.h **** 
  35:./libDaisy//src/hid/audio.h ****         /** factor for adjustment before and after callback for hardware that may have extra headro
  36:./libDaisy//src/hid/audio.h ****         float postgain;
  37:./libDaisy//src/hid/audio.h **** 
  38:./libDaisy//src/hid/audio.h ****         /** factor for additional one-sided compensation to audio path for hardware that may
  39:./libDaisy//src/hid/audio.h ****          *  have unequal input/output ranges
  40:./libDaisy//src/hid/audio.h ****          */
  41:./libDaisy//src/hid/audio.h ****         float output_compensation;
  42:./libDaisy//src/hid/audio.h **** 
  43:./libDaisy//src/hid/audio.h ****         /** Sets default values for config struct */
  44:./libDaisy//src/hid/audio.h ****         Config()
  45:./libDaisy//src/hid/audio.h ****         : blocksize(48),
  46:./libDaisy//src/hid/audio.h ****           samplerate(SaiHandle::Config::SampleRate::SAI_48KHZ),
  47:./libDaisy//src/hid/audio.h ****           postgain(1.f),
  48:./libDaisy//src/hid/audio.h ****           output_compensation(1.f)
  49:./libDaisy//src/hid/audio.h ****         {
  50:./libDaisy//src/hid/audio.h ****         }
  51:./libDaisy//src/hid/audio.h ****     };
  52:./libDaisy//src/hid/audio.h **** 
  53:./libDaisy//src/hid/audio.h ****     enum class Result
  54:./libDaisy//src/hid/audio.h ****     {
  55:./libDaisy//src/hid/audio.h ****         OK,
  56:./libDaisy//src/hid/audio.h ****         ERR,
  57:./libDaisy//src/hid/audio.h ****     };
  58:./libDaisy//src/hid/audio.h **** 
  59:./libDaisy//src/hid/audio.h ****     /** Non-Interleaving input buffer
  60:./libDaisy//src/hid/audio.h ****      * Buffer arranged by float[chn][sample] 
  61:./libDaisy//src/hid/audio.h ****      * const so that the user can't modify the input
  62:./libDaisy//src/hid/audio.h ****      */
  63:./libDaisy//src/hid/audio.h ****     typedef const float* const* InputBuffer;
  64:./libDaisy//src/hid/audio.h **** 
  65:./libDaisy//src/hid/audio.h ****     /** Non-Interleaving output buffer
  66:./libDaisy//src/hid/audio.h ****      * Arranged by float[chn][sample] 
  67:./libDaisy//src/hid/audio.h ****      */
  68:./libDaisy//src/hid/audio.h ****     typedef float** OutputBuffer;
  69:./libDaisy//src/hid/audio.h **** 
  70:./libDaisy//src/hid/audio.h ****     /** Type for a Non-Interleaving audio callback 
  71:./libDaisy//src/hid/audio.h ****      * Non-Interleaving audio callbacks in daisy will be of this type
  72:./libDaisy//src/hid/audio.h ****      */
  73:./libDaisy//src/hid/audio.h ****     typedef void (*AudioCallback)(InputBuffer  in,
  74:./libDaisy//src/hid/audio.h ****                                   OutputBuffer out,
  75:./libDaisy//src/hid/audio.h ****                                   size_t       size);
  76:./libDaisy//src/hid/audio.h **** 
  77:./libDaisy//src/hid/audio.h ****     /** Interleaving Input buffer
  78:./libDaisy//src/hid/audio.h ****      ** audio is prepared as { L0, R0, L1, R1, . . . LN, RN }]
  79:./libDaisy//src/hid/audio.h ****      ** this is const, as the user shouldn't modify it
  80:./libDaisy//src/hid/audio.h ****     */
  81:./libDaisy//src/hid/audio.h ****     typedef const float* InterleavingInputBuffer;
  82:./libDaisy//src/hid/audio.h **** 
  83:./libDaisy//src/hid/audio.h ****     /** Interleaving Output buffer 
  84:./libDaisy//src/hid/audio.h ****      ** audio is prepared as { L0, R0, L1, R1, . . . LN, RN }
  85:./libDaisy//src/hid/audio.h ****     */
  86:./libDaisy//src/hid/audio.h ****     typedef float* InterleavingOutputBuffer;
  87:./libDaisy//src/hid/audio.h **** 
  88:./libDaisy//src/hid/audio.h ****     /** Interleaving Audio Callback 
  89:./libDaisy//src/hid/audio.h ****      * Interleaving audio callbacks in daisy must be of this type
ARM GAS  /var/folders/z2/7_lhr9dn53s9tj4s0rwtyswm0000gn/T//ccOZi2Cx.s 			page 13


  90:./libDaisy//src/hid/audio.h ****      */
  91:./libDaisy//src/hid/audio.h ****     typedef void (*InterleavingAudioCallback)(InterleavingInputBuffer  in,
  92:./libDaisy//src/hid/audio.h ****                                               InterleavingOutputBuffer out,
  93:./libDaisy//src/hid/audio.h ****                                               size_t                   size);
  94:./libDaisy//src/hid/audio.h **** 
  95:./libDaisy//src/hid/audio.h ****     AudioHandle() : pimpl_(nullptr) {}
  96:./libDaisy//src/hid/audio.h ****     ~AudioHandle() {}
 147              		.loc 12 96 5 is_stmt 1 view .LVU32
 148              		.loc 12 96 5 is_stmt 0 view .LVU33
 149              	.LBE490:
 150              	.LBE486:
 151              		.loc 2 31 20 view .LVU34
 152 0000 7047     		bx	lr
 153              		.cfi_endproc
 154              	.LFE2565:
 156              		.weak	_ZN5daisy10TusenskonaD1Ev
 157              		.thumb_set _ZN5daisy10TusenskonaD1Ev,_ZN5daisy10TusenskonaD2Ev
 158 0002 00BF     		.section	.text._ZN7daisysp10OscillatorD2Ev,"axG",%progbits,_ZN7daisysp10OscillatorD5Ev,comdat
 159              		.align	1
 160              		.p2align 2,,3
 161              		.weak	_ZN7daisysp10OscillatorD2Ev
 162              		.syntax unified
 163              		.thumb
 164              		.thumb_func
 166              	_ZN7daisysp10OscillatorD2Ev:
 167              	.LVL2:
 168              	.LFB4248:
 169              		.file 13 "./DaisySP//Source/Synthesis/oscillator.h"
   1:./DaisySP//Source/Synthesis/oscillator.h **** /*
   2:./DaisySP//Source/Synthesis/oscillator.h **** Copyright (c) 2020 Electrosmith, Corp
   3:./DaisySP//Source/Synthesis/oscillator.h **** 
   4:./DaisySP//Source/Synthesis/oscillator.h **** Use of this source code is governed by an MIT-style
   5:./DaisySP//Source/Synthesis/oscillator.h **** license that can be found in the LICENSE file or at
   6:./DaisySP//Source/Synthesis/oscillator.h **** https://opensource.org/licenses/MIT.
   7:./DaisySP//Source/Synthesis/oscillator.h **** */
   8:./DaisySP//Source/Synthesis/oscillator.h **** 
   9:./DaisySP//Source/Synthesis/oscillator.h **** #pragma once
  10:./DaisySP//Source/Synthesis/oscillator.h **** #ifndef DSY_OSCILLATOR_H
  11:./DaisySP//Source/Synthesis/oscillator.h **** #define DSY_OSCILLATOR_H
  12:./DaisySP//Source/Synthesis/oscillator.h **** #include <stdint.h>
  13:./DaisySP//Source/Synthesis/oscillator.h **** #include "Utility/dsp.h"
  14:./DaisySP//Source/Synthesis/oscillator.h **** #ifdef __cplusplus
  15:./DaisySP//Source/Synthesis/oscillator.h **** 
  16:./DaisySP//Source/Synthesis/oscillator.h **** namespace daisysp
  17:./DaisySP//Source/Synthesis/oscillator.h **** {
  18:./DaisySP//Source/Synthesis/oscillator.h **** /** Synthesis of several waveforms, including polyBLEP bandlimited waveforms.
  19:./DaisySP//Source/Synthesis/oscillator.h **** */
  20:./DaisySP//Source/Synthesis/oscillator.h **** class Oscillator
  21:./DaisySP//Source/Synthesis/oscillator.h **** {
  22:./DaisySP//Source/Synthesis/oscillator.h ****   public:
  23:./DaisySP//Source/Synthesis/oscillator.h ****     Oscillator() {}
  24:./DaisySP//Source/Synthesis/oscillator.h ****     ~Oscillator() {}
 170              		.loc 13 24 5 is_stmt 1 view -0
 171              		.cfi_startproc
 172              		@ args = 0, pretend = 0, frame = 0
 173              		@ frame_needed = 0, uses_anonymous_args = 0
 174              		@ link register save eliminated.
ARM GAS  /var/folders/z2/7_lhr9dn53s9tj4s0rwtyswm0000gn/T//ccOZi2Cx.s 			page 14


 175              		.loc 13 24 20 is_stmt 0 view .LVU36
 176 0000 7047     		bx	lr
 177              		.cfi_endproc
 178              	.LFE4248:
 180              		.weak	_ZN7daisysp10OscillatorD1Ev
 181              		.thumb_set _ZN7daisysp10OscillatorD1Ev,_ZN7daisysp10OscillatorD2Ev
 182 0002 00BF     		.section	.text._ZN5daisy6Mpr121INS_18Mpr121I2CTransportEED2Ev,"axG",%progbits,_ZN5daisy6Mpr121INS_
 183              		.align	1
 184              		.p2align 2,,3
 185              		.weak	_ZN5daisy6Mpr121INS_18Mpr121I2CTransportEED2Ev
 186              		.syntax unified
 187              		.thumb
 188              		.thumb_func
 190              	_ZN5daisy6Mpr121INS_18Mpr121I2CTransportEED2Ev:
 191              	.LVL3:
 192              	.LFB5346:
  22:./libDaisy//src/dev/mpr121.h **** 
  23:./libDaisy//src/dev/mpr121.h ****     struct Config
  24:./libDaisy//src/dev/mpr121.h ****     {
  25:./libDaisy//src/dev/mpr121.h ****         I2CHandle::Config::Peripheral periph;
  26:./libDaisy//src/dev/mpr121.h ****         I2CHandle::Config::Speed      speed;
  27:./libDaisy//src/dev/mpr121.h ****         Pin                           scl;
  28:./libDaisy//src/dev/mpr121.h ****         Pin                           sda;
  29:./libDaisy//src/dev/mpr121.h **** 
  30:./libDaisy//src/dev/mpr121.h ****         I2CHandle::Config::Mode mode;
  31:./libDaisy//src/dev/mpr121.h **** 
  32:./libDaisy//src/dev/mpr121.h ****         uint8_t dev_addr;
  33:./libDaisy//src/dev/mpr121.h **** 
  34:./libDaisy//src/dev/mpr121.h ****         Config()
  35:./libDaisy//src/dev/mpr121.h ****         {
  36:./libDaisy//src/dev/mpr121.h ****             periph = I2CHandle::Config::Peripheral::I2C_1;
  37:./libDaisy//src/dev/mpr121.h ****             speed  = I2CHandle::Config::Speed::I2C_400KHZ;
  38:./libDaisy//src/dev/mpr121.h **** 
  39:./libDaisy//src/dev/mpr121.h ****             scl = Pin(PORTB, 8);
  40:./libDaisy//src/dev/mpr121.h ****             sda = Pin(PORTB, 9);
  41:./libDaisy//src/dev/mpr121.h **** 
  42:./libDaisy//src/dev/mpr121.h ****             dev_addr = MPR121_I2CADDR_DEFAULT;
  43:./libDaisy//src/dev/mpr121.h ****         }
  44:./libDaisy//src/dev/mpr121.h ****     };
  45:./libDaisy//src/dev/mpr121.h **** 
  46:./libDaisy//src/dev/mpr121.h ****     /** \return Did the transaction error? i.e. Return true if error, false if ok */
  47:./libDaisy//src/dev/mpr121.h ****     inline bool Init(Config config)
  48:./libDaisy//src/dev/mpr121.h ****     {
  49:./libDaisy//src/dev/mpr121.h ****         config_ = config;
  50:./libDaisy//src/dev/mpr121.h **** 
  51:./libDaisy//src/dev/mpr121.h ****         I2CHandle::Config i2c_conf;
  52:./libDaisy//src/dev/mpr121.h ****         i2c_conf.mode   = I2CHandle::Config::Mode::I2C_MASTER;
  53:./libDaisy//src/dev/mpr121.h ****         i2c_conf.periph = config.periph;
  54:./libDaisy//src/dev/mpr121.h ****         i2c_conf.speed  = config.speed;
  55:./libDaisy//src/dev/mpr121.h **** 
  56:./libDaisy//src/dev/mpr121.h ****         i2c_conf.pin_config.scl = config.scl;
  57:./libDaisy//src/dev/mpr121.h ****         i2c_conf.pin_config.sda = config.sda;
  58:./libDaisy//src/dev/mpr121.h **** 
  59:./libDaisy//src/dev/mpr121.h ****         return I2CHandle::Result::OK != i2c_.Init(i2c_conf);
  60:./libDaisy//src/dev/mpr121.h ****     }
  61:./libDaisy//src/dev/mpr121.h **** 
  62:./libDaisy//src/dev/mpr121.h ****     /** \return Did the transaction error? i.e. Return true if error, false if ok */
ARM GAS  /var/folders/z2/7_lhr9dn53s9tj4s0rwtyswm0000gn/T//ccOZi2Cx.s 			page 15


  63:./libDaisy//src/dev/mpr121.h ****     bool Write(uint8_t *data, uint16_t size)
  64:./libDaisy//src/dev/mpr121.h ****     {
  65:./libDaisy//src/dev/mpr121.h ****         return I2CHandle::Result::OK
  66:./libDaisy//src/dev/mpr121.h ****                != i2c_.TransmitBlocking(config_.dev_addr, data, size, 10);
  67:./libDaisy//src/dev/mpr121.h ****     }
  68:./libDaisy//src/dev/mpr121.h **** 
  69:./libDaisy//src/dev/mpr121.h ****     /** \return Did the transaction error? i.e. Return true if error, false if ok */
  70:./libDaisy//src/dev/mpr121.h ****     bool Read(uint8_t *data, uint16_t size)
  71:./libDaisy//src/dev/mpr121.h ****     {
  72:./libDaisy//src/dev/mpr121.h ****         return I2CHandle::Result::OK
  73:./libDaisy//src/dev/mpr121.h ****                != i2c_.ReceiveBlocking(config_.dev_addr, data, size, 10);
  74:./libDaisy//src/dev/mpr121.h ****     }
  75:./libDaisy//src/dev/mpr121.h **** 
  76:./libDaisy//src/dev/mpr121.h ****   private:
  77:./libDaisy//src/dev/mpr121.h ****     I2CHandle i2c_;
  78:./libDaisy//src/dev/mpr121.h ****     Config    config_;
  79:./libDaisy//src/dev/mpr121.h **** };
  80:./libDaisy//src/dev/mpr121.h **** 
  81:./libDaisy//src/dev/mpr121.h **** 
  82:./libDaisy//src/dev/mpr121.h **** /** @brief Device support for MPR121 12x Capacitive Touch Sensor
  83:./libDaisy//src/dev/mpr121.h ****     @author beserge
  84:./libDaisy//src/dev/mpr121.h ****     @date December 2021
  85:./libDaisy//src/dev/mpr121.h **** */
  86:./libDaisy//src/dev/mpr121.h **** template <typename Transport>
  87:./libDaisy//src/dev/mpr121.h **** class Mpr121
  88:./libDaisy//src/dev/mpr121.h **** {
  89:./libDaisy//src/dev/mpr121.h ****   public:
  90:./libDaisy//src/dev/mpr121.h ****     Mpr121() {}
  91:./libDaisy//src/dev/mpr121.h ****     ~Mpr121() {}
 193              		.loc 1 91 5 is_stmt 1 view -0
 194              		.cfi_startproc
 195              		@ args = 0, pretend = 0, frame = 0
 196              		@ frame_needed = 0, uses_anonymous_args = 0
 197              		@ link register save eliminated.
 198              	.LBB491:
 199              	.LBI491:
  21:./libDaisy//src/dev/mpr121.h **** 
 200              		.loc 1 21 5 view .LVU38
  21:./libDaisy//src/dev/mpr121.h **** 
 201              		.loc 1 21 5 is_stmt 0 view .LVU39
 202              	.LBE491:
 203              		.loc 1 91 16 view .LVU40
 204 0000 7047     		bx	lr
 205              		.cfi_endproc
 206              	.LFE5346:
 208              		.weak	_ZN5daisy6Mpr121INS_18Mpr121I2CTransportEED1Ev
 209              		.thumb_set _ZN5daisy6Mpr121INS_18Mpr121I2CTransportEED1Ev,_ZN5daisy6Mpr121INS_18Mpr121I2CTransport
 210 0002 00BF     		.section	.text._Z16NewAudioCallbackPKPKfPPfj,"ax",%progbits
 211              		.align	1
 212              		.p2align 2,,3
 213              		.global	_Z16NewAudioCallbackPKPKfPPfj
 214              		.syntax unified
 215              		.thumb
 216              		.thumb_func
 218              	_Z16NewAudioCallbackPKPKfPPfj:
 219              	.LVL4:
 220              	.LFB4758:
ARM GAS  /var/folders/z2/7_lhr9dn53s9tj4s0rwtyswm0000gn/T//ccOZi2Cx.s 			page 16


 221              		.file 14 "MPR121.cpp"
   1:MPR121.cpp    **** #include "tusenskona/src/tusenskona.h"
   2:MPR121.cpp    **** #include "daisysp.h"
   3:MPR121.cpp    **** #include "dev/mpr121.h"
   4:MPR121.cpp    **** #include "chebyshev.h"
   5:MPR121.cpp    **** #include "comb.h"
   6:MPR121.cpp    **** #include "delay.h"
   7:MPR121.cpp    **** #include "lowpass.h"
   8:MPR121.cpp    **** 
   9:MPR121.cpp    **** using namespace daisy;
  10:MPR121.cpp    **** using namespace daisysp;
  11:MPR121.cpp    **** 
  12:MPR121.cpp    **** Mpr121I2CTransport i2c;
  13:MPR121.cpp    **** Mpr121I2C touch;
  14:MPR121.cpp    **** Tusenskona hw;
  15:MPR121.cpp    **** 
  16:MPR121.cpp    **** uint16_t touched;
  17:MPR121.cpp    **** 
  18:MPR121.cpp    **** dsp::comb<300> aps[4];
  19:MPR121.cpp    **** dsp::delay<3800> ds[4];
  20:MPR121.cpp    **** dsp::lowpass lps[4];
  21:MPR121.cpp    **** 
  22:MPR121.cpp    **** Oscillator sine;
  23:MPR121.cpp    **** Oscillator lfo;
  24:MPR121.cpp    **** 
  25:MPR121.cpp    **** float decay = 0.5;
  26:MPR121.cpp    **** 
  27:MPR121.cpp    **** float a=0,b=0,c=0,d=0;
  28:MPR121.cpp    **** 
  29:MPR121.cpp    **** void AudioCallback(AudioHandle::InputBuffer in, AudioHandle::OutputBuffer out, size_t size)
  30:MPR121.cpp    **** {
  31:MPR121.cpp    **** 	for (size_t i = 0; i < size; i++)
  32:MPR121.cpp    **** 	{
  33:MPR121.cpp    **** 		out[0][i] = 0.f;
  34:MPR121.cpp    **** 		out[1][i] = 0.f;
  35:MPR121.cpp    **** 
  36:MPR121.cpp    **** 
  37:MPR121.cpp    ****         auto lfomod = (lfo.Process()-1.f)/2.f;
  38:MPR121.cpp    ****         for (int j = 0;j<4;++i)
  39:MPR121.cpp    ****         {
  40:MPR121.cpp    ****             ds[j].mod(16*lfomod);
  41:MPR121.cpp    ****             aps[j].mod(3*lfomod);
  42:MPR121.cpp    ****         }
  43:MPR121.cpp    **** 
  44:MPR121.cpp    ****         float s = sine.Process();
  45:MPR121.cpp    ****         //float s = (in[0][i]+in[1][i])*0.5;
  46:MPR121.cpp    **** 
  47:MPR121.cpp    ****         a = lps[0].process(s + a);
  48:MPR121.cpp    ****         b = lps[1].process(s + c);
  49:MPR121.cpp    ****         c = lps[2].process(b);
  50:MPR121.cpp    ****         d = lps[3].process(d);
  51:MPR121.cpp    **** 
  52:MPR121.cpp    ****         a = aps[0].process(a);
  53:MPR121.cpp    ****         b = aps[1].process(b);
  54:MPR121.cpp    ****         c = aps[2].process(c);
  55:MPR121.cpp    ****         d = aps[3].process(d);
  56:MPR121.cpp    **** 
ARM GAS  /var/folders/z2/7_lhr9dn53s9tj4s0rwtyswm0000gn/T//ccOZi2Cx.s 			page 17


  57:MPR121.cpp    ****         ds[0].write(a);
  58:MPR121.cpp    ****         a = ds[0].read();
  59:MPR121.cpp    ****         ds[1].write(b);
  60:MPR121.cpp    ****         b = ds[1].read();
  61:MPR121.cpp    ****         ds[2].write(c);
  62:MPR121.cpp    ****         c = ds[2].read();
  63:MPR121.cpp    ****         ds[3].write(d);
  64:MPR121.cpp    ****         d = ds[3].read();
  65:MPR121.cpp    **** 
  66:MPR121.cpp    ****         float aa = (a-b);
  67:MPR121.cpp    ****         float bb = (a+b);
  68:MPR121.cpp    ****         float cc = (c-d);
  69:MPR121.cpp    ****         float dd = (c+d);
  70:MPR121.cpp    ****         a =tanhf(decay*(aa-cc));
  71:MPR121.cpp    ****         b =tanhf(decay*(aa+cc));
  72:MPR121.cpp    ****         c =tanhf(decay*(bb-dd));
  73:MPR121.cpp    ****         d =tanhf(decay*(bb+dd));
  74:MPR121.cpp    **** 
  75:MPR121.cpp    ****         out[0][i] = a;
  76:MPR121.cpp    ****         out[1][i] = b;
  77:MPR121.cpp    **** 
  78:MPR121.cpp    **** 	}
  79:MPR121.cpp    **** }
  80:MPR121.cpp    **** 
  81:MPR121.cpp    **** void NewAudioCallback(AudioHandle::InputBuffer in, AudioHandle::OutputBuffer out, size_t size)
  82:MPR121.cpp    **** {
 222              		.loc 14 82 1 is_stmt 1 view -0
 223              		.cfi_startproc
 224              		@ args = 0, pretend = 0, frame = 16
 225              		@ frame_needed = 0, uses_anonymous_args = 0
  83:MPR121.cpp    **** 	for (size_t i = 0; i < size; i++)
 226              		.loc 14 83 2 view .LVU42
 227              	.LBB526:
 228              		.loc 14 83 23 view .LVU43
 229              	.LBE526:
  82:MPR121.cpp    **** 	for (size_t i = 0; i < size; i++)
 230              		.loc 14 82 1 is_stmt 0 view .LVU44
 231 0000 2DE9F04F 		push	{r4, r5, r6, r7, r8, r9, r10, fp, lr}
 232              		.cfi_def_cfa_offset 36
 233              		.cfi_offset 4, -36
 234              		.cfi_offset 5, -32
 235              		.cfi_offset 6, -28
 236              		.cfi_offset 7, -24
 237              		.cfi_offset 8, -20
 238              		.cfi_offset 9, -16
 239              		.cfi_offset 10, -12
 240              		.cfi_offset 11, -8
 241              		.cfi_offset 14, -4
 242 0004 2DED048B 		vpush.64	{d8, d9}
 243              		.cfi_def_cfa_offset 52
 244              		.cfi_offset 80, -52
 245              		.cfi_offset 81, -48
 246              		.cfi_offset 82, -44
 247              		.cfi_offset 83, -40
 248 0008 85B0     		sub	sp, sp, #20
 249              		.cfi_def_cfa_offset 72
 250              	.LBB733:
ARM GAS  /var/folders/z2/7_lhr9dn53s9tj4s0rwtyswm0000gn/T//ccOZi2Cx.s 			page 18


 251              		.loc 14 83 23 view .LVU45
 252 000a CDE90212 		strd	r1, r2, [sp, #8]
 253 000e 002A     		cmp	r2, #0
 254 0010 00F0D982 		beq	.L6
 255 0014 094F     		ldr	r7, .L86
 256              		.loc 14 83 14 view .LVU46
 257 0016 4FF00009 		mov	r9, #0
 258 001a 094C     		ldr	r4, .L86+4
 259 001c A7F54052 		sub	r2, r7, #12288
 260              	.LVL5:
 261              		.loc 14 83 14 view .LVU47
 262 0020 084D     		ldr	r5, .L86+8
 263 0022 04F5805A 		add	r10, r4, #4096
 264 0026 07F58048 		add	r8, r7, #16384
 265 002a 07F50046 		add	r6, r7, #32768
 266 002e 07F5304B 		add	fp, r7, #45056
 267 0032 0092     		str	r2, [sp]
 268              	.LBB527:
  84:MPR121.cpp    **** 	{
  85:MPR121.cpp    **** 		out[0][i] = 0;
  86:MPR121.cpp    **** 		out[1][i] = 0; 
 269              		.loc 14 86 8 view .LVU48
 270 0034 D1E90003 		ldrd	r0, r3, [r1]
 271              	.LVL6:
 272              		.loc 14 86 8 view .LVU49
 273 0038 ADE1     		b	.L49
 274              	.L87:
 275 003a 00BF     		.align	2
 276              	.L86:
 277 003c 00300000 		.word	ds+12288
 278 0040 00000000 		.word	aps
 279 0044 00000000 		.word	.LANCHOR1
 280              	.LVL7:
 281              	.L66:
 282              	.LBB528:
 283              	.LBB529:
 284              		.file 15 "./virveldsp/src/delay.h"
   1:./virveldsp/src/delay.h **** #include "daisy.h"
   2:./virveldsp/src/delay.h **** 
   3:./virveldsp/src/delay.h **** namespace dsp {
   4:./virveldsp/src/delay.h ****     
   5:./virveldsp/src/delay.h **** template <uint16_t S>
   6:./virveldsp/src/delay.h **** class delay {
   7:./virveldsp/src/delay.h ****     private:
   8:./virveldsp/src/delay.h ****         float m_buffer[S];
   9:./virveldsp/src/delay.h ****         const uint16_t m_maxSize = S;
  10:./virveldsp/src/delay.h ****         float m_readPtr;
  11:./virveldsp/src/delay.h ****         uint16_t m_writePtr;
  12:./virveldsp/src/delay.h ****         float m_delayTime;
  13:./virveldsp/src/delay.h ****         float m_prev;
  14:./virveldsp/src/delay.h **** 
  15:./virveldsp/src/delay.h ****     public: 
  16:./virveldsp/src/delay.h ****         void init(const float initSize) {
  17:./virveldsp/src/delay.h ****             m_delayTime = initSize;
  18:./virveldsp/src/delay.h ****         }
  19:./virveldsp/src/delay.h **** 
  20:./virveldsp/src/delay.h ****         inline void mod(float mod) {
ARM GAS  /var/folders/z2/7_lhr9dn53s9tj4s0rwtyswm0000gn/T//ccOZi2Cx.s 			page 19


  21:./virveldsp/src/delay.h ****             m_delayTime += mod;
  22:./virveldsp/src/delay.h ****         }
  23:./virveldsp/src/delay.h **** 
  24:./virveldsp/src/delay.h ****         inline void write(const float in) {
  25:./virveldsp/src/delay.h ****             if (m_writePtr >= m_delayTime)
  26:./virveldsp/src/delay.h ****                 m_writePtr -= m_delayTime;
  27:./virveldsp/src/delay.h **** 
  28:./virveldsp/src/delay.h ****             m_buffer[m_writePtr] = in;
  29:./virveldsp/src/delay.h ****             m_writePtr++;
  30:./virveldsp/src/delay.h ****         }
  31:./virveldsp/src/delay.h **** 
  32:./virveldsp/src/delay.h ****         inline void setDelayTime(const float delayTime) {
  33:./virveldsp/src/delay.h ****             m_delayTime = delayTime;
  34:./virveldsp/src/delay.h ****         }
  35:./virveldsp/src/delay.h **** 
  36:./virveldsp/src/delay.h ****         inline float read() {
  37:./virveldsp/src/delay.h **** 
  38:./virveldsp/src/delay.h ****             m_readPtr += 1;
  39:./virveldsp/src/delay.h **** 
  40:./virveldsp/src/delay.h ****             uint16_t pos = static_cast<uint16_t>(m_readPtr);
  41:./virveldsp/src/delay.h ****             float frac = m_readPtr - pos;
  42:./virveldsp/src/delay.h **** 
  43:./virveldsp/src/delay.h **** 
  44:./virveldsp/src/delay.h ****             if (m_readPtr <= 1)
  45:./virveldsp/src/delay.h ****                 return m_buffer[1];
  46:./virveldsp/src/delay.h ****             if (m_readPtr >= (m_maxSize-1))
 285              		.loc 15 46 31 view .LVU50
 286 0048 B7F8603B 		ldrh	r3, [r7, #2912]
 287              		.loc 15 46 40 view .LVU51
 288 004c 5A1E     		subs	r2, r3, #1
 289 004e 05EE902A 		vmov	s11, r2	@ int
 290              		.loc 15 46 27 view .LVU52
 291 0052 F8EEE55A 		vcvt.f32.s32	s11, s11
 292              		.loc 15 46 13 view .LVU53
 293 0056 F4EEE57A 		vcmpe.f32	s15, s11
 294 005a F1EE10FA 		vmrs	APSR_nzcv, FPSCR
 295 005e 80F2AC82 		bge	.L79
  41:./virveldsp/src/delay.h **** 
 296              		.loc 15 41 38 view .LVU54
 297 0062 FCEEE75A 		vcvt.u32.f32	s11, s15
  47:./virveldsp/src/delay.h ****                     return m_buffer[m_maxSize];
  48:./virveldsp/src/delay.h **** 
  49:./virveldsp/src/delay.h ****             float a = m_buffer[pos];
  50:./virveldsp/src/delay.h ****             float b = m_buffer[pos + 1];
  51:./virveldsp/src/delay.h ****             float out = b + a + m_prev - frac*(a - m_prev);
 298              		.loc 15 51 33 view .LVU55
 299 0066 07F53763 		add	r3, r7, #2928
  49:./virveldsp/src/delay.h ****             float b = m_buffer[pos + 1];
 300              		.loc 15 49 19 view .LVU56
 301 006a 009A     		ldr	r2, [sp]
  52:./virveldsp/src/delay.h ****             
  53:./virveldsp/src/delay.h **** 
  54:./virveldsp/src/delay.h ****             if (m_readPtr >= m_delayTime)
 302              		.loc 15 54 13 view .LVU57
 303 006c F4EEE47A 		vcmpe.f32	s15, s9
  51:./virveldsp/src/delay.h ****             
 304              		.loc 15 51 33 view .LVU58
ARM GAS  /var/folders/z2/7_lhr9dn53s9tj4s0rwtyswm0000gn/T//ccOZi2Cx.s 			page 20


 305 0070 93ED004A 		vldr.32	s8, [r3]
  41:./virveldsp/src/delay.h **** 
 306              		.loc 15 41 38 view .LVU59
 307 0074 CDED015A 		vstr.32	s11, [sp, #4]	@ int
 308 0078 BDF80430 		ldrh	r3, [sp, #4]
 309              		.loc 15 54 13 view .LVU60
 310 007c F1EE10FA 		vmrs	APSR_nzcv, FPSCR
  41:./virveldsp/src/delay.h **** 
 311              		.loc 15 41 36 view .LVU61
 312 0080 05EE903A 		vmov	s11, r3	@ int
  49:./virveldsp/src/delay.h ****             float b = m_buffer[pos + 1];
 313              		.loc 15 49 19 view .LVU62
 314 0084 02EB830C 		add	ip, r2, r3, lsl #2
  41:./virveldsp/src/delay.h **** 
 315              		.loc 15 41 36 view .LVU63
 316 0088 B8EEE55A 		vcvt.f32.s32	s10, s11
  51:./virveldsp/src/delay.h ****             
 317              		.loc 15 51 27 view .LVU64
 318 008c 9CED010A 		vldr.32	s0, [ip, #4]
  49:./virveldsp/src/delay.h ****             float b = m_buffer[pos + 1];
 319              		.loc 15 49 19 view .LVU65
 320 0090 DCED005A 		vldr.32	s11, [ip]
 321              	.LVL8:
  51:./virveldsp/src/delay.h ****             
 322              		.loc 15 51 27 view .LVU66
 323 0094 35EE800A 		vadd.f32	s0, s11, s0
  41:./virveldsp/src/delay.h **** 
 324              		.loc 15 41 19 view .LVU67
 325 0098 37EEC55A 		vsub.f32	s10, s15, s10
  51:./virveldsp/src/delay.h ****             
 326              		.loc 15 51 50 view .LVU68
 327 009c 75EEC43A 		vsub.f32	s7, s11, s8
  51:./virveldsp/src/delay.h ****             
 328              		.loc 15 51 31 view .LVU69
 329 00a0 30EE040A 		vadd.f32	s0, s0, s8
  51:./virveldsp/src/delay.h ****             
 330              		.loc 15 51 19 view .LVU70
 331 00a4 A5EE630A 		vfms.f32	s0, s10, s7
 332              	.LVL9:
 333              		.loc 15 54 13 view .LVU71
 334 00a8 03DB     		blt	.L20
  55:./virveldsp/src/delay.h ****                 m_readPtr -= m_delayTime;
 335              		.loc 15 55 27 view .LVU72
 336 00aa 77EEE47A 		vsub.f32	s15, s15, s9
 337              	.LVL10:
 338              		.loc 15 55 27 view .LVU73
 339 00ae C0ED007A 		vstr.32	s15, [r0]
 340              	.LVL11:
 341              	.L20:
 342              		.loc 15 55 27 view .LVU74
 343              	.LBE529:
 344              	.LBE528:
  87:MPR121.cpp    ****         
  88:MPR121.cpp    ****         float s = sine.Process();
  89:MPR121.cpp    ****         
  90:MPR121.cpp    ****         a = lps[0].process(s + a);
  91:MPR121.cpp    ****         b = lps[1].process(s + c);
ARM GAS  /var/folders/z2/7_lhr9dn53s9tj4s0rwtyswm0000gn/T//ccOZi2Cx.s 			page 21


  92:MPR121.cpp    ****         c = lps[2].process(b);
  93:MPR121.cpp    ****         d = lps[3].process(d);
  94:MPR121.cpp    **** 
  95:MPR121.cpp    ****         a = aps[0].process(a);
  96:MPR121.cpp    ****         b = aps[1].process(b);
  97:MPR121.cpp    ****         c = aps[2].process(c);
  98:MPR121.cpp    ****         d = aps[3].process(d);
  99:MPR121.cpp    **** 
 100:MPR121.cpp    ****         ds[0].write(a);
 101:MPR121.cpp    ****         a = ds[0].read();
 102:MPR121.cpp    ****         ds[1].write(b);
 345              		.loc 14 102 9 is_stmt 1 view .LVU75
 346              	.LBB535:
 347              	.LBI535:
  24:./virveldsp/src/delay.h ****             if (m_writePtr >= m_delayTime)
 348              		.loc 15 24 21 view .LVU76
 349              	.LBB536:
  25:./virveldsp/src/delay.h ****                 m_writePtr -= m_delayTime;
 350              		.loc 15 25 17 is_stmt 0 view .LVU77
 351 00b2 B8F8DC36 		ldrh	r3, [r8, #1756]
  25:./virveldsp/src/delay.h ****                 m_writePtr -= m_delayTime;
 352              		.loc 15 25 31 view .LVU78
 353 00b6 08F5DC60 		add	r0, r8, #1760
  25:./virveldsp/src/delay.h ****                 m_writePtr -= m_delayTime;
 354              		.loc 15 25 28 view .LVU79
 355 00ba 07EE903A 		vmov	s15, r3	@ int
  25:./virveldsp/src/delay.h ****                 m_writePtr -= m_delayTime;
 356              		.loc 15 25 31 view .LVU80
 357 00be 90ED005A 		vldr.32	s10, [r0]
  25:./virveldsp/src/delay.h ****                 m_writePtr -= m_delayTime;
 358              		.loc 15 25 28 view .LVU81
 359 00c2 F8EEE75A 		vcvt.f32.s32	s11, s15
  25:./virveldsp/src/delay.h ****                 m_writePtr -= m_delayTime;
 360              		.loc 15 25 13 view .LVU82
 361 00c6 F4EEC55A 		vcmpe.f32	s11, s10
 362 00ca F1EE10FA 		vmrs	APSR_nzcv, FPSCR
 363 00ce 06DB     		blt	.L24
  26:./virveldsp/src/delay.h **** 
 364              		.loc 15 26 28 view .LVU83
 365 00d0 75EEC55A 		vsub.f32	s11, s11, s10
 366 00d4 FCEEE55A 		vcvt.u32.f32	s11, s11
 367 00d8 15EE903A 		vmov	r3, s11	@ int
 368 00dc 9BB2     		uxth	r3, r3
 369              	.L24:
 370              	.LBE536:
 371              	.LBE535:
 372              	.LBB540:
 373              	.LBB541:
  38:./virveldsp/src/delay.h **** 
 374              		.loc 15 38 23 view .LVU84
 375 00de 08F5DB6C 		add	ip, r8, #1752
 376 00e2 F7EE005A 		vmov.f32	s11, #1.0e+0
 377              	.LBE541:
 378              	.LBE540:
 379              	.LBB547:
 380              	.LBB537:
  28:./virveldsp/src/delay.h ****             m_writePtr++;
ARM GAS  /var/folders/z2/7_lhr9dn53s9tj4s0rwtyswm0000gn/T//ccOZi2Cx.s 			page 22


 381              		.loc 15 28 34 view .LVU85
 382 00e6 07F67430 		addw	r0, r7, #2932
  29:./virveldsp/src/delay.h ****         }
 383              		.loc 15 29 13 view .LVU86
 384 00ea 03F1010E 		add	lr, r3, #1
 385              	.LBE537:
 386              	.LBE547:
 387              	.LBB548:
 388              	.LBB542:
  38:./virveldsp/src/delay.h **** 
 389              		.loc 15 38 23 view .LVU87
 390 00ee DCED007A 		vldr.32	s15, [ip]
 391              	.LBE542:
 392              	.LBE548:
 393              	.LBB549:
 394              	.LBB538:
  28:./virveldsp/src/delay.h ****             m_writePtr++;
 395              		.loc 15 28 34 view .LVU88
 396 00f2 00EB8303 		add	r3, r0, r3, lsl #2
  29:./virveldsp/src/delay.h ****         }
 397              		.loc 15 29 13 view .LVU89
 398 00f6 A8F8DCE6 		strh	lr, [r8, #1756]	@ movhi
 399              	.LVL12:
  29:./virveldsp/src/delay.h ****         }
 400              		.loc 15 29 13 view .LVU90
 401              	.LBE538:
 402              	.LBE549:
 103:MPR121.cpp    ****         b = ds[1].read();
 403              		.loc 14 103 9 is_stmt 1 view .LVU91
 404              	.LBB550:
 405              	.LBI540:
  36:./virveldsp/src/delay.h **** 
 406              		.loc 15 36 22 view .LVU92
 407              	.LBB543:
  38:./virveldsp/src/delay.h **** 
 408              		.loc 15 38 23 is_stmt 0 view .LVU93
 409 00fa 77EEA57A 		vadd.f32	s15, s15, s11
 410              	.LVL13:
  38:./virveldsp/src/delay.h **** 
 411              		.loc 15 38 23 view .LVU94
 412              	.LBE543:
 413              	.LBE550:
 414              	.LBB551:
 415              	.LBB539:
  28:./virveldsp/src/delay.h ****             m_writePtr++;
 416              		.loc 15 28 34 view .LVU95
 417 00fe 83ED006A 		vstr.32	s12, [r3]
 418              	.LBE539:
 419              	.LBE551:
 420              	.LBB552:
 421              	.LBB544:
  44:./virveldsp/src/delay.h ****                 return m_buffer[1];
 422              		.loc 15 44 13 view .LVU96
 423 0102 F4EEE57A 		vcmpe.f32	s15, s11
  38:./virveldsp/src/delay.h **** 
 424              		.loc 15 38 23 view .LVU97
 425 0106 CCED007A 		vstr.32	s15, [ip]
ARM GAS  /var/folders/z2/7_lhr9dn53s9tj4s0rwtyswm0000gn/T//ccOZi2Cx.s 			page 23


  44:./virveldsp/src/delay.h ****                 return m_buffer[1];
 426              		.loc 15 44 13 view .LVU98
 427 010a F1EE10FA 		vmrs	APSR_nzcv, FPSCR
 428 010e 40F23B82 		bls	.L80
  46:./virveldsp/src/delay.h ****                     return m_buffer[m_maxSize];
 429              		.loc 15 46 31 view .LVU99
 430 0112 B8F8D436 		ldrh	r3, [r8, #1748]
  46:./virveldsp/src/delay.h ****                     return m_buffer[m_maxSize];
 431              		.loc 15 46 40 view .LVU100
 432 0116 5A1E     		subs	r2, r3, #1
 433 0118 06EE102A 		vmov	s12, r2	@ int
  46:./virveldsp/src/delay.h ****                     return m_buffer[m_maxSize];
 434              		.loc 15 46 27 view .LVU101
 435 011c B8EEC66A 		vcvt.f32.s32	s12, s12
  46:./virveldsp/src/delay.h ****                     return m_buffer[m_maxSize];
 436              		.loc 15 46 13 view .LVU102
 437 0120 F4EEC67A 		vcmpe.f32	s15, s12
 438 0124 F1EE10FA 		vmrs	APSR_nzcv, FPSCR
 439 0128 80F23882 		bge	.L81
  41:./virveldsp/src/delay.h **** 
 440              		.loc 15 41 38 view .LVU103
 441 012c BCEEE76A 		vcvt.u32.f32	s12, s15
  51:./virveldsp/src/delay.h ****             
 442              		.loc 15 51 33 view .LVU104
 443 0130 08F2E463 		addw	r3, r8, #1764
  54:./virveldsp/src/delay.h ****                 m_readPtr -= m_delayTime;
 444              		.loc 15 54 13 view .LVU105
 445 0134 F4EEC57A 		vcmpe.f32	s15, s10
  51:./virveldsp/src/delay.h ****             
 446              		.loc 15 51 33 view .LVU106
 447 0138 D3ED004A 		vldr.32	s9, [r3]
  41:./virveldsp/src/delay.h **** 
 448              		.loc 15 41 38 view .LVU107
 449 013c 8DED016A 		vstr.32	s12, [sp, #4]	@ int
 450 0140 BDF804E0 		ldrh	lr, [sp, #4]
  54:./virveldsp/src/delay.h ****                 m_readPtr -= m_delayTime;
 451              		.loc 15 54 13 view .LVU108
 452 0144 F1EE10FA 		vmrs	APSR_nzcv, FPSCR
  41:./virveldsp/src/delay.h **** 
 453              		.loc 15 41 36 view .LVU109
 454 0148 06EE10EA 		vmov	s12, lr	@ int
  49:./virveldsp/src/delay.h ****             float b = m_buffer[pos + 1];
 455              		.loc 15 49 19 view .LVU110
 456 014c 00EB8E03 		add	r3, r0, lr, lsl #2
  41:./virveldsp/src/delay.h **** 
 457              		.loc 15 41 36 view .LVU111
 458 0150 F8EEC65A 		vcvt.f32.s32	s11, s12
  51:./virveldsp/src/delay.h ****             
 459              		.loc 15 51 27 view .LVU112
 460 0154 D3ED019A 		vldr.32	s19, [r3, #4]
  49:./virveldsp/src/delay.h ****             float b = m_buffer[pos + 1];
 461              		.loc 15 49 19 view .LVU113
 462 0158 93ED006A 		vldr.32	s12, [r3]
  51:./virveldsp/src/delay.h ****             
 463              		.loc 15 51 27 view .LVU114
 464 015c 76EE299A 		vadd.f32	s19, s12, s19
  41:./virveldsp/src/delay.h **** 
ARM GAS  /var/folders/z2/7_lhr9dn53s9tj4s0rwtyswm0000gn/T//ccOZi2Cx.s 			page 24


 465              		.loc 15 41 19 view .LVU115
 466 0160 77EEE55A 		vsub.f32	s11, s15, s11
 467              	.LVL14:
  51:./virveldsp/src/delay.h ****             
 468              		.loc 15 51 50 view .LVU116
 469 0164 36EE644A 		vsub.f32	s8, s12, s9
  51:./virveldsp/src/delay.h ****             
 470              		.loc 15 51 31 view .LVU117
 471 0168 79EEA49A 		vadd.f32	s19, s19, s9
  51:./virveldsp/src/delay.h ****             
 472              		.loc 15 51 19 view .LVU118
 473 016c E5EEC49A 		vfms.f32	s19, s11, s8
 474              	.LVL15:
  54:./virveldsp/src/delay.h ****                 m_readPtr -= m_delayTime;
 475              		.loc 15 54 13 view .LVU119
 476 0170 03DB     		blt	.L28
 477              		.loc 15 55 27 view .LVU120
 478 0172 77EEC57A 		vsub.f32	s15, s15, s10
 479              	.LVL16:
 480              		.loc 15 55 27 view .LVU121
 481 0176 CCED007A 		vstr.32	s15, [ip]
 482              	.LVL17:
 483              	.L28:
 484              		.loc 15 55 27 view .LVU122
 485              	.LBE544:
 486              	.LBE552:
 104:MPR121.cpp    ****         ds[2].write(c);
 487              		.loc 14 104 9 is_stmt 1 view .LVU123
 488              	.LBB553:
 489              	.LBI553:
  24:./virveldsp/src/delay.h ****             if (m_writePtr >= m_delayTime)
 490              		.loc 15 24 21 view .LVU124
 491              	.LBB554:
  25:./virveldsp/src/delay.h ****                 m_writePtr -= m_delayTime;
 492              		.loc 15 25 17 is_stmt 0 view .LVU125
 493 017a B6F85032 		ldrh	r3, [r6, #592]
  25:./virveldsp/src/delay.h ****                 m_writePtr -= m_delayTime;
 494              		.loc 15 25 31 view .LVU126
 495 017e D6ED955A 		vldr.32	s11, [r6, #596]
  25:./virveldsp/src/delay.h ****                 m_writePtr -= m_delayTime;
 496              		.loc 15 25 28 view .LVU127
 497 0182 07EE903A 		vmov	s15, r3	@ int
 498 0186 B8EEE76A 		vcvt.f32.s32	s12, s15
  25:./virveldsp/src/delay.h ****                 m_writePtr -= m_delayTime;
 499              		.loc 15 25 13 view .LVU128
 500 018a B4EEE56A 		vcmpe.f32	s12, s11
 501 018e F1EE10FA 		vmrs	APSR_nzcv, FPSCR
 502 0192 06DB     		blt	.L32
  26:./virveldsp/src/delay.h **** 
 503              		.loc 15 26 28 view .LVU129
 504 0194 36EE656A 		vsub.f32	s12, s12, s11
 505 0198 BCEEC66A 		vcvt.u32.f32	s12, s12
 506 019c 16EE103A 		vmov	r3, s12	@ int
 507 01a0 9BB2     		uxth	r3, r3
 508              	.L32:
 509              	.LBE554:
 510              	.LBE553:
ARM GAS  /var/folders/z2/7_lhr9dn53s9tj4s0rwtyswm0000gn/T//ccOZi2Cx.s 			page 25


 511              	.LBB558:
 512              	.LBB559:
  38:./virveldsp/src/delay.h **** 
 513              		.loc 15 38 23 view .LVU130
 514 01a2 B7EE006A 		vmov.f32	s12, #1.0e+0
 515 01a6 D6ED937A 		vldr.32	s15, [r6, #588]
 516              	.LBE559:
 517              	.LBE558:
 518              	.LBB564:
 519              	.LBB555:
  28:./virveldsp/src/delay.h ****             m_writePtr++;
 520              		.loc 15 28 34 view .LVU131
 521 01aa 08F5DD60 		add	r0, r8, #1768
  29:./virveldsp/src/delay.h ****         }
 522              		.loc 15 29 13 view .LVU132
 523 01ae 03F1010C 		add	ip, r3, #1
 524              	.LBE555:
 525              	.LBE564:
 526              	.LBB565:
 527              	.LBB560:
  38:./virveldsp/src/delay.h **** 
 528              		.loc 15 38 23 view .LVU133
 529 01b2 77EE867A 		vadd.f32	s15, s15, s12
 530              	.LBE560:
 531              	.LBE565:
 532              	.LBB566:
 533              	.LBB556:
  28:./virveldsp/src/delay.h ****             m_writePtr++;
 534              		.loc 15 28 34 view .LVU134
 535 01b6 00EB8303 		add	r3, r0, r3, lsl #2
  29:./virveldsp/src/delay.h ****         }
 536              		.loc 15 29 13 view .LVU135
 537 01ba A6F850C2 		strh	ip, [r6, #592]	@ movhi
 538              	.LVL18:
  29:./virveldsp/src/delay.h ****         }
 539              		.loc 15 29 13 view .LVU136
 540              	.LBE556:
 541              	.LBE566:
 105:MPR121.cpp    ****         c = ds[2].read();
 542              		.loc 14 105 9 is_stmt 1 view .LVU137
 543              	.LBB567:
 544              	.LBI558:
  36:./virveldsp/src/delay.h **** 
 545              		.loc 15 36 22 view .LVU138
  36:./virveldsp/src/delay.h **** 
 546              		.loc 15 36 22 is_stmt 0 view .LVU139
 547              	.LBE567:
 548              	.LBB568:
 549              	.LBB557:
  28:./virveldsp/src/delay.h ****             m_writePtr++;
 550              		.loc 15 28 34 view .LVU140
 551 01be C3ED006A 		vstr.32	s13, [r3]
 552              	.LBE557:
 553              	.LBE568:
 554              	.LBB569:
 555              	.LBB561:
  44:./virveldsp/src/delay.h ****                 return m_buffer[1];
ARM GAS  /var/folders/z2/7_lhr9dn53s9tj4s0rwtyswm0000gn/T//ccOZi2Cx.s 			page 26


 556              		.loc 15 44 13 view .LVU141
 557 01c2 F4EEC67A 		vcmpe.f32	s15, s12
  38:./virveldsp/src/delay.h **** 
 558              		.loc 15 38 23 view .LVU142
 559 01c6 C6ED937A 		vstr.32	s15, [r6, #588]
  44:./virveldsp/src/delay.h ****                 return m_buffer[1];
 560              		.loc 15 44 13 view .LVU143
 561 01ca F1EE10FA 		vmrs	APSR_nzcv, FPSCR
 562 01ce 40F2E081 		bls	.L82
  46:./virveldsp/src/delay.h ****                     return m_buffer[m_maxSize];
 563              		.loc 15 46 31 view .LVU144
 564 01d2 B6F84832 		ldrh	r3, [r6, #584]
  46:./virveldsp/src/delay.h ****                     return m_buffer[m_maxSize];
 565              		.loc 15 46 40 view .LVU145
 566 01d6 5A1E     		subs	r2, r3, #1
 567 01d8 06EE902A 		vmov	s13, r2	@ int
  46:./virveldsp/src/delay.h ****                     return m_buffer[m_maxSize];
 568              		.loc 15 46 27 view .LVU146
 569 01dc F8EEE66A 		vcvt.f32.s32	s13, s13
  46:./virveldsp/src/delay.h ****                     return m_buffer[m_maxSize];
 570              		.loc 15 46 13 view .LVU147
 571 01e0 F4EEE67A 		vcmpe.f32	s15, s13
 572 01e4 F1EE10FA 		vmrs	APSR_nzcv, FPSCR
 573 01e8 80F2E281 		bge	.L83
  41:./virveldsp/src/delay.h **** 
 574              		.loc 15 41 38 view .LVU148
 575 01ec FCEEE76A 		vcvt.u32.f32	s13, s15
  51:./virveldsp/src/delay.h ****             
 576              		.loc 15 51 33 view .LVU149
 577 01f0 96ED965A 		vldr.32	s10, [r6, #600]
  54:./virveldsp/src/delay.h ****                 m_readPtr -= m_delayTime;
 578              		.loc 15 54 13 view .LVU150
 579 01f4 F4EEE57A 		vcmpe.f32	s15, s11
  41:./virveldsp/src/delay.h **** 
 580              		.loc 15 41 38 view .LVU151
 581 01f8 CDED016A 		vstr.32	s13, [sp, #4]	@ int
 582 01fc BDF80430 		ldrh	r3, [sp, #4]
  54:./virveldsp/src/delay.h ****                 m_readPtr -= m_delayTime;
 583              		.loc 15 54 13 view .LVU152
 584 0200 F1EE10FA 		vmrs	APSR_nzcv, FPSCR
  41:./virveldsp/src/delay.h **** 
 585              		.loc 15 41 36 view .LVU153
 586 0204 06EE903A 		vmov	s13, r3	@ int
  49:./virveldsp/src/delay.h ****             float b = m_buffer[pos + 1];
 587              		.loc 15 49 19 view .LVU154
 588 0208 00EB830C 		add	ip, r0, r3, lsl #2
  41:./virveldsp/src/delay.h **** 
 589              		.loc 15 41 36 view .LVU155
 590 020c B8EEE66A 		vcvt.f32.s32	s12, s13
  51:./virveldsp/src/delay.h ****             
 591              		.loc 15 51 27 view .LVU156
 592 0210 DCED018A 		vldr.32	s17, [ip, #4]
  49:./virveldsp/src/delay.h ****             float b = m_buffer[pos + 1];
 593              		.loc 15 49 19 view .LVU157
 594 0214 DCED006A 		vldr.32	s13, [ip]
  51:./virveldsp/src/delay.h ****             
 595              		.loc 15 51 27 view .LVU158
ARM GAS  /var/folders/z2/7_lhr9dn53s9tj4s0rwtyswm0000gn/T//ccOZi2Cx.s 			page 27


 596 0218 76EEA88A 		vadd.f32	s17, s13, s17
  41:./virveldsp/src/delay.h **** 
 597              		.loc 15 41 19 view .LVU159
 598 021c 37EEC66A 		vsub.f32	s12, s15, s12
 599              	.LVL19:
  51:./virveldsp/src/delay.h ****             
 600              		.loc 15 51 50 view .LVU160
 601 0220 76EEC54A 		vsub.f32	s9, s13, s10
  51:./virveldsp/src/delay.h ****             
 602              		.loc 15 51 31 view .LVU161
 603 0224 78EE858A 		vadd.f32	s17, s17, s10
  51:./virveldsp/src/delay.h ****             
 604              		.loc 15 51 19 view .LVU162
 605 0228 E6EE648A 		vfms.f32	s17, s12, s9
 606              	.LVL20:
  54:./virveldsp/src/delay.h ****                 m_readPtr -= m_delayTime;
 607              		.loc 15 54 13 view .LVU163
 608 022c 03DB     		blt	.L36
 609              		.loc 15 55 27 view .LVU164
 610 022e 77EEE57A 		vsub.f32	s15, s15, s11
 611              	.LVL21:
 612              		.loc 15 55 27 view .LVU165
 613 0232 C6ED937A 		vstr.32	s15, [r6, #588]
 614              	.LVL22:
 615              	.L36:
 616              		.loc 15 55 27 view .LVU166
 617              	.LBE561:
 618              	.LBE569:
 106:MPR121.cpp    ****         ds[3].write(d);
 619              		.loc 14 106 9 is_stmt 1 view .LVU167
 620              	.LBB570:
 621              	.LBI570:
  24:./virveldsp/src/delay.h ****             if (m_writePtr >= m_delayTime)
 622              		.loc 15 24 21 view .LVU168
 623              	.LBB571:
  25:./virveldsp/src/delay.h ****                 m_writePtr -= m_delayTime;
 624              		.loc 15 25 17 is_stmt 0 view .LVU169
 625 0236 BBF8C43D 		ldrh	r3, [fp, #3524]
  25:./virveldsp/src/delay.h ****                 m_writePtr -= m_delayTime;
 626              		.loc 15 25 31 view .LVU170
 627 023a 0BF6C850 		addw	r0, fp, #3528
  25:./virveldsp/src/delay.h ****                 m_writePtr -= m_delayTime;
 628              		.loc 15 25 28 view .LVU171
 629 023e 07EE903A 		vmov	s15, r3	@ int
  25:./virveldsp/src/delay.h ****                 m_writePtr -= m_delayTime;
 630              		.loc 15 25 31 view .LVU172
 631 0242 90ED006A 		vldr.32	s12, [r0]
  25:./virveldsp/src/delay.h ****                 m_writePtr -= m_delayTime;
 632              		.loc 15 25 28 view .LVU173
 633 0246 F8EEE76A 		vcvt.f32.s32	s13, s15
  25:./virveldsp/src/delay.h ****                 m_writePtr -= m_delayTime;
 634              		.loc 15 25 13 view .LVU174
 635 024a F4EEC66A 		vcmpe.f32	s13, s12
 636 024e F1EE10FA 		vmrs	APSR_nzcv, FPSCR
 637 0252 06DB     		blt	.L40
  26:./virveldsp/src/delay.h **** 
 638              		.loc 15 26 28 view .LVU175
ARM GAS  /var/folders/z2/7_lhr9dn53s9tj4s0rwtyswm0000gn/T//ccOZi2Cx.s 			page 28


 639 0254 76EEC66A 		vsub.f32	s13, s13, s12
 640 0258 FCEEE66A 		vcvt.u32.f32	s13, s13
 641 025c 16EE903A 		vmov	r3, s13	@ int
 642 0260 9BB2     		uxth	r3, r3
 643              	.L40:
 644              	.LBE571:
 645              	.LBE570:
 646              	.LBB575:
 647              	.LBB576:
  38:./virveldsp/src/delay.h **** 
 648              		.loc 15 38 23 view .LVU176
 649 0262 0BF55C60 		add	r0, fp, #3520
 650 0266 F7EE006A 		vmov.f32	s13, #1.0e+0
 651              	.LBE576:
 652              	.LBE575:
 653              	.LBB582:
 654              	.LBB572:
  28:./virveldsp/src/delay.h ****             m_writePtr++;
 655              		.loc 15 28 34 view .LVU177
 656 026a 06EB830C 		add	ip, r6, r3, lsl #2
  29:./virveldsp/src/delay.h ****         }
 657              		.loc 15 29 13 view .LVU178
 658 026e 0133     		adds	r3, r3, #1
 659              	.LBE572:
 660              	.LBE582:
 661              	.LBB583:
 662              	.LBB577:
  38:./virveldsp/src/delay.h **** 
 663              		.loc 15 38 23 view .LVU179
 664 0270 D0ED007A 		vldr.32	s15, [r0]
 665              	.LBE577:
 666              	.LBE583:
 667              	.LBB584:
 668              	.LBB573:
  28:./virveldsp/src/delay.h ****             m_writePtr++;
 669              		.loc 15 28 34 view .LVU180
 670 0274 8CED977A 		vstr.32	s14, [ip, #604]
 671              	.LBE573:
 672              	.LBE584:
 673              	.LBB585:
 674              	.LBB578:
  38:./virveldsp/src/delay.h **** 
 675              		.loc 15 38 23 view .LVU181
 676 0278 77EEA67A 		vadd.f32	s15, s15, s13
 677              	.LBE578:
 678              	.LBE585:
 679              	.LBB586:
 680              	.LBB574:
  29:./virveldsp/src/delay.h ****         }
 681              		.loc 15 29 13 view .LVU182
 682 027c ABF8C43D 		strh	r3, [fp, #3524]	@ movhi
 683              	.LVL23:
  29:./virveldsp/src/delay.h ****         }
 684              		.loc 15 29 13 view .LVU183
 685              	.LBE574:
 686              	.LBE586:
 107:MPR121.cpp    ****         d = ds[3].read();
ARM GAS  /var/folders/z2/7_lhr9dn53s9tj4s0rwtyswm0000gn/T//ccOZi2Cx.s 			page 29


 687              		.loc 14 107 9 is_stmt 1 view .LVU184
 688              	.LBB587:
 689              	.LBI575:
  36:./virveldsp/src/delay.h **** 
 690              		.loc 15 36 22 view .LVU185
 691              	.LBB579:
  44:./virveldsp/src/delay.h ****                 return m_buffer[1];
 692              		.loc 15 44 13 is_stmt 0 view .LVU186
 693 0280 F4EEE67A 		vcmpe.f32	s15, s13
  38:./virveldsp/src/delay.h **** 
 694              		.loc 15 38 23 view .LVU187
 695 0284 C0ED007A 		vstr.32	s15, [r0]
  44:./virveldsp/src/delay.h ****                 return m_buffer[1];
 696              		.loc 15 44 13 view .LVU188
 697 0288 F1EE10FA 		vmrs	APSR_nzcv, FPSCR
 698 028c 40F27981 		bls	.L84
  46:./virveldsp/src/delay.h ****                     return m_buffer[m_maxSize];
 699              		.loc 15 46 31 view .LVU189
 700 0290 BBF8BC3D 		ldrh	r3, [fp, #3516]
  46:./virveldsp/src/delay.h ****                     return m_buffer[m_maxSize];
 701              		.loc 15 46 40 view .LVU190
 702 0294 5A1E     		subs	r2, r3, #1
 703 0296 07EE102A 		vmov	s14, r2	@ int
  46:./virveldsp/src/delay.h ****                     return m_buffer[m_maxSize];
 704              		.loc 15 46 27 view .LVU191
 705 029a B8EEC77A 		vcvt.f32.s32	s14, s14
  46:./virveldsp/src/delay.h ****                     return m_buffer[m_maxSize];
 706              		.loc 15 46 13 view .LVU192
 707 029e F4EEC77A 		vcmpe.f32	s15, s14
 708 02a2 F1EE10FA 		vmrs	APSR_nzcv, FPSCR
 709 02a6 80F27E81 		bge	.L85
  41:./virveldsp/src/delay.h **** 
 710              		.loc 15 41 38 view .LVU193
 711 02aa BCEEE77A 		vcvt.u32.f32	s14, s15
  51:./virveldsp/src/delay.h ****             
 712              		.loc 15 51 33 view .LVU194
 713 02ae 0BF6CC53 		addw	r3, fp, #3532
  54:./virveldsp/src/delay.h ****                 m_readPtr -= m_delayTime;
 714              		.loc 15 54 13 view .LVU195
 715 02b2 F4EEC67A 		vcmpe.f32	s15, s12
  51:./virveldsp/src/delay.h ****             
 716              		.loc 15 51 33 view .LVU196
 717 02b6 D3ED005A 		vldr.32	s11, [r3]
  41:./virveldsp/src/delay.h **** 
 718              		.loc 15 41 38 view .LVU197
 719 02ba 8DED017A 		vstr.32	s14, [sp, #4]	@ int
 720 02be BDF80430 		ldrh	r3, [sp, #4]
  54:./virveldsp/src/delay.h ****                 m_readPtr -= m_delayTime;
 721              		.loc 15 54 13 view .LVU198
 722 02c2 F1EE10FA 		vmrs	APSR_nzcv, FPSCR
  41:./virveldsp/src/delay.h **** 
 723              		.loc 15 41 36 view .LVU199
 724 02c6 07EE103A 		vmov	s14, r3	@ int
  49:./virveldsp/src/delay.h ****             float b = m_buffer[pos + 1];
 725              		.loc 15 49 19 view .LVU200
 726 02ca 06EB830C 		add	ip, r6, r3, lsl #2
  41:./virveldsp/src/delay.h **** 
ARM GAS  /var/folders/z2/7_lhr9dn53s9tj4s0rwtyswm0000gn/T//ccOZi2Cx.s 			page 30


 727              		.loc 15 41 36 view .LVU201
 728 02ce F8EEC76A 		vcvt.f32.s32	s13, s14
  51:./virveldsp/src/delay.h ****             
 729              		.loc 15 51 27 view .LVU202
 730 02d2 9CED989A 		vldr.32	s18, [ip, #608]
  49:./virveldsp/src/delay.h ****             float b = m_buffer[pos + 1];
 731              		.loc 15 49 19 view .LVU203
 732 02d6 9CED977A 		vldr.32	s14, [ip, #604]
  51:./virveldsp/src/delay.h ****             
 733              		.loc 15 51 27 view .LVU204
 734 02da 37EE099A 		vadd.f32	s18, s14, s18
  41:./virveldsp/src/delay.h **** 
 735              		.loc 15 41 19 view .LVU205
 736 02de 77EEE66A 		vsub.f32	s13, s15, s13
 737              	.LVL24:
  51:./virveldsp/src/delay.h ****             
 738              		.loc 15 51 50 view .LVU206
 739 02e2 37EE655A 		vsub.f32	s10, s14, s11
  51:./virveldsp/src/delay.h ****             
 740              		.loc 15 51 31 view .LVU207
 741 02e6 39EE259A 		vadd.f32	s18, s18, s11
  51:./virveldsp/src/delay.h ****             
 742              		.loc 15 51 19 view .LVU208
 743 02ea A6EEC59A 		vfms.f32	s18, s13, s10
 744              	.LVL25:
  54:./virveldsp/src/delay.h ****                 m_readPtr -= m_delayTime;
 745              		.loc 15 54 13 view .LVU209
 746 02ee 03DB     		blt	.L44
 747              		.loc 15 55 27 view .LVU210
 748 02f0 77EEC67A 		vsub.f32	s15, s15, s12
 749              	.LVL26:
 750              		.loc 15 55 27 view .LVU211
 751 02f4 C0ED007A 		vstr.32	s15, [r0]
 752              	.LVL27:
 753              	.L44:
 754              		.loc 15 55 27 view .LVU212
 755 02f8 0191     		str	r1, [sp, #4]
 756              	.LVL28:
 757              		.loc 15 55 27 view .LVU213
 758              	.LBE579:
 759              	.LBE587:
 108:MPR121.cpp    **** 
 109:MPR121.cpp    ****         a = tanhf(a);
 760              		.loc 14 109 9 is_stmt 1 view .LVU214
 761              		.loc 14 109 18 is_stmt 0 view .LVU215
 762 02fa FFF7FEFF 		bl	tanhf
 763              	.LVL29:
 764 02fe B0EE408A 		vmov.f32	s16, s0
 765              	.LBE527:
  83:MPR121.cpp    **** 	{
 766              		.loc 14 83 2 view .LVU216
 767 0302 09F10109 		add	r9, r9, #1
 768              	.LVL30:
 769              	.LBB730:
 110:MPR121.cpp    ****         b = tanhf(b);
 770              		.loc 14 110 18 view .LVU217
 771 0306 B0EE690A 		vmov.f32	s0, s19
ARM GAS  /var/folders/z2/7_lhr9dn53s9tj4s0rwtyswm0000gn/T//ccOZi2Cx.s 			page 31


 772              		.loc 14 110 9 is_stmt 1 view .LVU218
 773              		.loc 14 110 18 is_stmt 0 view .LVU219
 774 030a FFF7FEFF 		bl	tanhf
 775              	.LVL31:
 776 030e F0EE409A 		vmov.f32	s19, s0
 111:MPR121.cpp    ****         c = tanhf(c);
 777              		.loc 14 111 18 view .LVU220
 778 0312 B0EE680A 		vmov.f32	s0, s17
 779              		.loc 14 111 9 is_stmt 1 view .LVU221
 780              		.loc 14 111 18 is_stmt 0 view .LVU222
 781 0316 FFF7FEFF 		bl	tanhf
 782              	.LVL32:
 783 031a F0EE408A 		vmov.f32	s17, s0
 112:MPR121.cpp    ****         d = tanhf(d);
 784              		.loc 14 112 18 view .LVU223
 785 031e B0EE490A 		vmov.f32	s0, s18
 786              		.loc 14 112 9 is_stmt 1 view .LVU224
 787              		.loc 14 112 18 is_stmt 0 view .LVU225
 788 0322 FFF7FEFF 		bl	tanhf
 789              	.LVL33:
 113:MPR121.cpp    **** 
 114:MPR121.cpp    ****         float aa = (a-b);
 790              		.loc 14 114 9 is_stmt 1 view .LVU226
 791              		.loc 14 114 15 is_stmt 0 view .LVU227
 792 0326 78EE697A 		vsub.f32	s15, s16, s19
 793              	.LVL34:
 115:MPR121.cpp    ****         float bb = (a+b);
 794              		.loc 14 115 9 is_stmt 1 view .LVU228
 116:MPR121.cpp    ****         float cc = (c-d);
 795              		.loc 14 116 15 is_stmt 0 view .LVU229
 796 032a 38EEC06A 		vsub.f32	s12, s17, s0
 117:MPR121.cpp    ****         float dd = (c+d);
 118:MPR121.cpp    ****         a =decay*(aa-cc);
 797              		.loc 14 118 17 view .LVU230
 798 032e A84B     		ldr	r3, .L88
 115:MPR121.cpp    ****         float cc = (c-d);
 799              		.loc 14 115 15 view .LVU231
 800 0330 38EE298A 		vadd.f32	s16, s16, s19
 801              	.LVL35:
 116:MPR121.cpp    ****         float cc = (c-d);
 802              		.loc 14 116 9 is_stmt 1 view .LVU232
 117:MPR121.cpp    ****         float dd = (c+d);
 803              		.loc 14 117 9 view .LVU233
 119:MPR121.cpp    ****         b =decay*(aa+cc);
 120:MPR121.cpp    ****         c =decay*(bb-dd);
 121:MPR121.cpp    ****         d =decay*(bb+dd);
 122:MPR121.cpp    **** 
 123:MPR121.cpp    ****         out[0][i] = a;
 804              		.loc 14 123 19 is_stmt 0 view .LVU234
 805 0334 0199     		ldr	r1, [sp, #4]
 117:MPR121.cpp    ****         a =decay*(aa-cc);
 806              		.loc 14 117 15 view .LVU235
 807 0336 78EE808A 		vadd.f32	s17, s17, s0
 808              	.LVL36:
 118:MPR121.cpp    ****         b =decay*(aa+cc);
 809              		.loc 14 118 9 is_stmt 1 view .LVU236
 118:MPR121.cpp    ****         b =decay*(aa+cc);
ARM GAS  /var/folders/z2/7_lhr9dn53s9tj4s0rwtyswm0000gn/T//ccOZi2Cx.s 			page 32


 810              		.loc 14 118 17 is_stmt 0 view .LVU237
 811 033a D3ED006A 		vldr.32	s13, [r3]
 118:MPR121.cpp    ****         b =decay*(aa+cc);
 812              		.loc 14 118 21 view .LVU238
 813 033e 37EEC67A 		vsub.f32	s14, s15, s12
 118:MPR121.cpp    ****         b =decay*(aa+cc);
 814              		.loc 14 118 11 view .LVU239
 815 0342 A44B     		ldr	r3, .L88+4
 119:MPR121.cpp    ****         b =decay*(aa+cc);
 816              		.loc 14 119 21 view .LVU240
 817 0344 77EE867A 		vadd.f32	s15, s15, s12
 818              	.LVL37:
 119:MPR121.cpp    ****         b =decay*(aa+cc);
 819              		.loc 14 119 11 view .LVU241
 820 0348 A34A     		ldr	r2, .L88+8
 120:MPR121.cpp    ****         d =decay*(bb+dd);
 821              		.loc 14 120 21 view .LVU242
 822 034a 38EE686A 		vsub.f32	s12, s16, s17
 823              	.LVL38:
 118:MPR121.cpp    ****         b =decay*(aa+cc);
 824              		.loc 14 118 17 view .LVU243
 825 034e 27EE267A 		vmul.f32	s14, s14, s13
 121:MPR121.cpp    **** 
 826              		.loc 14 121 21 view .LVU244
 827 0352 38EE288A 		vadd.f32	s16, s16, s17
 828              	.LVL39:
 120:MPR121.cpp    ****         d =decay*(bb+dd);
 829              		.loc 14 120 17 view .LVU245
 830 0356 26EE266A 		vmul.f32	s12, s12, s13
 118:MPR121.cpp    ****         b =decay*(aa+cc);
 831              		.loc 14 118 11 view .LVU246
 832 035a 83ED007A 		vstr.32	s14, [r3]
 119:MPR121.cpp    ****         c =decay*(bb-dd);
 833              		.loc 14 119 9 is_stmt 1 view .LVU247
 120:MPR121.cpp    ****         d =decay*(bb+dd);
 834              		.loc 14 120 9 view .LVU248
 119:MPR121.cpp    ****         c =decay*(bb-dd);
 835              		.loc 14 119 17 is_stmt 0 view .LVU249
 836 035e 67EEA67A 		vmul.f32	s15, s15, s13
 120:MPR121.cpp    ****         d =decay*(bb+dd);
 837              		.loc 14 120 11 view .LVU250
 838 0362 9E4B     		ldr	r3, .L88+12
 121:MPR121.cpp    **** 
 839              		.loc 14 121 17 view .LVU251
 840 0364 28EE268A 		vmul.f32	s16, s16, s13
 120:MPR121.cpp    ****         d =decay*(bb+dd);
 841              		.loc 14 120 11 view .LVU252
 842 0368 83ED006A 		vstr.32	s12, [r3]
 121:MPR121.cpp    **** 
 843              		.loc 14 121 9 is_stmt 1 view .LVU253
 121:MPR121.cpp    **** 
 844              		.loc 14 121 11 is_stmt 0 view .LVU254
 845 036c 9C4B     		ldr	r3, .L88+16
 119:MPR121.cpp    ****         c =decay*(bb-dd);
 846              		.loc 14 119 11 view .LVU255
 847 036e C2ED007A 		vstr.32	s15, [r2]
 121:MPR121.cpp    **** 
ARM GAS  /var/folders/z2/7_lhr9dn53s9tj4s0rwtyswm0000gn/T//ccOZi2Cx.s 			page 33


 848              		.loc 14 121 11 view .LVU256
 849 0372 83ED008A 		vstr.32	s16, [r3]
 850              		.loc 14 123 9 is_stmt 1 view .LVU257
 851              		.loc 14 123 14 is_stmt 0 view .LVU258
 852 0376 029B     		ldr	r3, [sp, #8]
 124:MPR121.cpp    ****         out[1][i] = b; 
 853              		.loc 14 124 14 view .LVU259
 854 0378 D3E90003 		ldrd	r0, r3, [r3]
 123:MPR121.cpp    ****         out[1][i] = b; 
 855              		.loc 14 123 19 view .LVU260
 856 037c 00EB010C 		add	ip, r0, r1
 857              		.loc 14 124 19 view .LVU261
 858 0380 1944     		add	r1, r1, r3
 123:MPR121.cpp    ****         out[1][i] = b; 
 859              		.loc 14 123 19 view .LVU262
 860 0382 8CED007A 		vstr.32	s14, [ip]
 861              		.loc 14 124 9 is_stmt 1 view .LVU263
 862              		.loc 14 124 19 is_stmt 0 view .LVU264
 863 0386 D2F800C0 		ldr	ip, [r2]	@ float
 864              	.LBE730:
  83:MPR121.cpp    **** 	{
 865              		.loc 14 83 23 view .LVU265
 866 038a 039A     		ldr	r2, [sp, #12]
 867              	.LBB731:
 868              		.loc 14 124 19 view .LVU266
 869 038c C1F800C0 		str	ip, [r1]	@ float
 870              	.LBE731:
  83:MPR121.cpp    **** 	{
 871              		.loc 14 83 2 is_stmt 1 view .LVU267
 872              	.LVL40:
  83:MPR121.cpp    **** 	{
 873              		.loc 14 83 23 view .LVU268
 874 0390 4A45     		cmp	r2, r9
 875 0392 00F01881 		beq	.L6
 876              	.LVL41:
 877              	.L49:
 878              	.LBB732:
  85:MPR121.cpp    **** 		out[1][i] = 0; 
 879              		.loc 14 85 3 discriminator 2 view .LVU269
  85:MPR121.cpp    **** 		out[1][i] = 0; 
 880              		.loc 14 85 13 is_stmt 0 discriminator 2 view .LVU270
 881 0396 0021     		movs	r1, #0
  86:MPR121.cpp    ****         
 882              		.loc 14 86 13 discriminator 2 view .LVU271
 883 0398 03EB8903 		add	r3, r3, r9, lsl #2
  85:MPR121.cpp    **** 		out[1][i] = 0; 
 884              		.loc 14 85 13 discriminator 2 view .LVU272
 885 039c 00EB8900 		add	r0, r0, r9, lsl #2
 886 03a0 0160     		str	r1, [r0]	@ float
  86:MPR121.cpp    ****         
 887              		.loc 14 86 3 is_stmt 1 discriminator 2 view .LVU273
  86:MPR121.cpp    ****         
 888              		.loc 14 86 13 is_stmt 0 discriminator 2 view .LVU274
 889 03a2 1960     		str	r1, [r3]	@ float
  88:MPR121.cpp    ****         
 890              		.loc 14 88 9 is_stmt 1 discriminator 2 view .LVU275
  88:MPR121.cpp    ****         
ARM GAS  /var/folders/z2/7_lhr9dn53s9tj4s0rwtyswm0000gn/T//ccOZi2Cx.s 			page 34


 891              		.loc 14 88 31 is_stmt 0 discriminator 2 view .LVU276
 892 03a4 8F48     		ldr	r0, .L88+20
 893 03a6 FFF7FEFF 		bl	_ZN7daisysp10Oscillator7ProcessEv
 894              	.LVL42:
  90:MPR121.cpp    ****         b = lps[1].process(s + c);
 895              		.loc 14 90 9 is_stmt 1 discriminator 2 view .LVU277
 896              	.LBB588:
 897              	.LBI588:
 898              		.file 16 "./virveldsp/src/lowpass.h"
   1:./virveldsp/src/lowpass.h **** #include "daisy.h"
   2:./virveldsp/src/lowpass.h **** 
   3:./virveldsp/src/lowpass.h **** namespace dsp {
   4:./virveldsp/src/lowpass.h **** 
   5:./virveldsp/src/lowpass.h ****     // One pole low pass filter
   6:./virveldsp/src/lowpass.h ****     class lowpass {
   7:./virveldsp/src/lowpass.h ****         private:
   8:./virveldsp/src/lowpass.h ****             uint16_t m_sr;
   9:./virveldsp/src/lowpass.h ****             float m_fac;
  10:./virveldsp/src/lowpass.h ****             float m_prev;
  11:./virveldsp/src/lowpass.h ****             
  12:./virveldsp/src/lowpass.h ****         public:
  13:./virveldsp/src/lowpass.h ****             void init(const uint16_t samplerate, const float fac ) {
  14:./virveldsp/src/lowpass.h ****                 m_sr = samplerate;
  15:./virveldsp/src/lowpass.h ****                 m_fac = fac;
  16:./virveldsp/src/lowpass.h ****                 m_prev = 0.f;
  17:./virveldsp/src/lowpass.h ****             }
  18:./virveldsp/src/lowpass.h **** 
  19:./virveldsp/src/lowpass.h ****             void setFrequency(const float frequency) {
  20:./virveldsp/src/lowpass.h ****                 m_fac = (1.f/m_sr * frequency) / (1.f/m_sr * (frequency + 1));
  21:./virveldsp/src/lowpass.h ****             }
  22:./virveldsp/src/lowpass.h **** 
  23:./virveldsp/src/lowpass.h ****             void setSmoothingFactor(const float fac) {
  24:./virveldsp/src/lowpass.h ****                 m_fac = fac;
  25:./virveldsp/src/lowpass.h ****             }
  26:./virveldsp/src/lowpass.h ****             
  27:./virveldsp/src/lowpass.h ****             inline float process(float in) {
 899              		.loc 16 27 26 discriminator 2 view .LVU278
 900              	.LBB589:
  28:./virveldsp/src/lowpass.h ****                 m_prev = m_prev + m_fac * (in - m_prev);
 901              		.loc 16 28 17 discriminator 2 view .LVU279
 902              	.LBE589:
 903              	.LBE588:
  90:MPR121.cpp    ****         b = lps[1].process(s + c);
 904              		.loc 14 90 27 is_stmt 0 discriminator 2 view .LVU280
 905 03aa 8A4B     		ldr	r3, .L88+4
 906              	.LBB595:
 907              	.LBB596:
 908              		.loc 16 28 26 discriminator 2 view .LVU281
 909 03ac D5ED057A 		vldr.32	s15, [r5, #20]
 910 03b0 4FEA8901 		lsl	r1, r9, #2
 911              	.LBE596:
 912              	.LBE595:
  90:MPR121.cpp    ****         b = lps[1].process(s + c);
 913              		.loc 14 90 27 discriminator 2 view .LVU282
 914 03b4 D3ED005A 		vldr.32	s11, [r3]
  91:MPR121.cpp    ****         c = lps[2].process(b);
 915              		.loc 14 91 27 discriminator 2 view .LVU283
ARM GAS  /var/folders/z2/7_lhr9dn53s9tj4s0rwtyswm0000gn/T//ccOZi2Cx.s 			page 35


 916 03b8 884B     		ldr	r3, .L88+12
  90:MPR121.cpp    ****         b = lps[1].process(s + c);
 917              		.loc 14 90 27 discriminator 2 view .LVU284
 918 03ba 70EE255A 		vadd.f32	s11, s0, s11
 919              	.LVL43:
 920              	.LBB602:
 921              	.LBB590:
 922              		.loc 16 28 26 discriminator 2 view .LVU285
 923 03be 95ED026A 		vldr.32	s12, [r5, #8]
 924              	.LBE590:
 925              	.LBE602:
  91:MPR121.cpp    ****         c = lps[2].process(b);
 926              		.loc 14 91 27 discriminator 2 view .LVU286
 927 03c2 93ED007A 		vldr.32	s14, [r3]
 928              	.LBB603:
 929              	.LBB604:
 930              		.file 17 "./virveldsp/src/comb.h"
   1:./virveldsp/src/comb.h **** #include "daisy.h"
   2:./virveldsp/src/comb.h **** 
   3:./virveldsp/src/comb.h **** namespace dsp {
   4:./virveldsp/src/comb.h **** 
   5:./virveldsp/src/comb.h **** using UInt = uint16_t;
   6:./virveldsp/src/comb.h **** 
   7:./virveldsp/src/comb.h **** template <UInt S>
   8:./virveldsp/src/comb.h **** class comb {
   9:./virveldsp/src/comb.h ****     public:
  10:./virveldsp/src/comb.h ****         void init(const float ff = 0.f, const float fb = 0.f);
  11:./virveldsp/src/comb.h ****         inline float process(const float in);
  12:./virveldsp/src/comb.h ****         inline float tap(uint16_t in);
  13:./virveldsp/src/comb.h ****         inline void mod(float mod);
  14:./virveldsp/src/comb.h ****         inline void setDelayTime(const float delayTime);
  15:./virveldsp/src/comb.h ****     private:
  16:./virveldsp/src/comb.h ****         uint16_t m_size = S;
  17:./virveldsp/src/comb.h ****         float m_buf[S];
  18:./virveldsp/src/comb.h ****         uint16_t m_pos;
  19:./virveldsp/src/comb.h ****         float m_delayTime;
  20:./virveldsp/src/comb.h ****         float m_prev;
  21:./virveldsp/src/comb.h ****     protected:
  22:./virveldsp/src/comb.h ****         float m_ff;
  23:./virveldsp/src/comb.h ****         float m_fb;
  24:./virveldsp/src/comb.h **** };
  25:./virveldsp/src/comb.h **** 
  26:./virveldsp/src/comb.h **** 
  27:./virveldsp/src/comb.h **** template <UInt S>
  28:./virveldsp/src/comb.h **** void comb<S>::init(const float ff, const float fb) { 
  29:./virveldsp/src/comb.h ****     m_pos = 0;
  30:./virveldsp/src/comb.h ****     m_ff = ff;
  31:./virveldsp/src/comb.h ****     m_fb = fb;
  32:./virveldsp/src/comb.h ****     m_delayTime = static_cast<float>(m_size);
  33:./virveldsp/src/comb.h **** }
  34:./virveldsp/src/comb.h **** 
  35:./virveldsp/src/comb.h **** 
  36:./virveldsp/src/comb.h **** template <UInt S>
  37:./virveldsp/src/comb.h **** inline void comb<S>::mod(float mod) {
  38:./virveldsp/src/comb.h ****     m_delayTime += mod;
  39:./virveldsp/src/comb.h **** }
  40:./virveldsp/src/comb.h **** 
ARM GAS  /var/folders/z2/7_lhr9dn53s9tj4s0rwtyswm0000gn/T//ccOZi2Cx.s 			page 36


  41:./virveldsp/src/comb.h **** template <UInt S>
  42:./virveldsp/src/comb.h **** inline void comb<S>::setDelayTime(const float delayTime) {
  43:./virveldsp/src/comb.h ****     m_delayTime = delayTime;
  44:./virveldsp/src/comb.h **** }
  45:./virveldsp/src/comb.h **** 
  46:./virveldsp/src/comb.h **** 
  47:./virveldsp/src/comb.h **** template <UInt S>
  48:./virveldsp/src/comb.h **** inline float comb<S>::process(const float in) {
  49:./virveldsp/src/comb.h **** 
  50:./virveldsp/src/comb.h ****     uint16_t pos = static_cast<uint16_t>(m_pos);
  51:./virveldsp/src/comb.h ****     float frac = m_pos-pos;
  52:./virveldsp/src/comb.h **** 
  53:./virveldsp/src/comb.h ****     float a = m_buf[pos%m_size];
  54:./virveldsp/src/comb.h ****     float b = m_buf[(pos+1)%m_size];
  55:./virveldsp/src/comb.h ****     float c = b + a - m_prev + frac*(m_prev - a);
  56:./virveldsp/src/comb.h **** 
  57:./virveldsp/src/comb.h ****     float buf_out = m_buf[pos];
  58:./virveldsp/src/comb.h ****     float y = in - buf_out* m_fb;
 931              		.loc 17 58 11 discriminator 2 view .LVU287
 932 03c6 884B     		ldr	r3, .L88+24
 933              	.LBE604:
 934              	.LBE603:
  91:MPR121.cpp    ****         c = lps[2].process(b);
 935              		.loc 14 91 27 discriminator 2 view .LVU288
 936 03c8 30EE070A 		vadd.f32	s0, s0, s14
 937              	.LVL44:
 938              	.LBB616:
 939              	.LBB597:
 940              		.loc 16 28 33 discriminator 2 view .LVU289
 941 03cc 95ED043A 		vldr.32	s6, [r5, #16]
 942              	.LBE597:
 943              	.LBE616:
 944              	.LBB617:
 945              	.LBB605:
 946              		.loc 17 58 11 discriminator 2 view .LVU290
 947 03d0 D3ED004A 		vldr.32	s9, [r3]
 948              	.LBE605:
 949              	.LBE617:
 950              	.LBB618:
 951              	.LBB591:
 952              		.loc 16 28 47 discriminator 2 view .LVU291
 953 03d4 75EEC65A 		vsub.f32	s11, s11, s12
 954              	.LVL45:
 955              		.loc 16 28 47 discriminator 2 view .LVU292
 956              	.LBE591:
 957              	.LBE618:
 958              	.LBB619:
 959              	.LBB620:
 960 03d8 814B     		ldr	r3, .L88+16
 961              	.LBE620:
 962              	.LBE619:
 963              	.LBB626:
 964              	.LBB598:
 965 03da 30EE670A 		vsub.f32	s0, s0, s15
 966              	.LBE598:
 967              	.LBE626:
 968              	.LBB627:
ARM GAS  /var/folders/z2/7_lhr9dn53s9tj4s0rwtyswm0000gn/T//ccOZi2Cx.s 			page 37


 969              	.LBB621:
 970              		.loc 16 28 26 discriminator 2 view .LVU293
 971 03de 95ED0B7A 		vldr.32	s14, [r5, #44]
 972              		.loc 16 28 47 discriminator 2 view .LVU294
 973 03e2 93ED005A 		vldr.32	s10, [r3]
 974              	.LBE621:
 975              	.LBE627:
 976              	.LBB628:
 977              	.LBB592:
 978              		.loc 16 28 33 discriminator 2 view .LVU295
 979 03e6 D5ED013A 		vldr.32	s7, [r5, #4]
 980              	.LBE592:
 981              	.LBE628:
 982              	.LBB629:
 983              	.LBB599:
 984 03ea E3EE007A 		vfma.f32	s15, s6, s0
 985              	.LBE599:
 986              	.LBE629:
 987              	.LBB630:
 988              	.LBB606:
  59:./virveldsp/src/comb.h ****     m_buf[pos] = y;
  60:./virveldsp/src/comb.h ****     const float out = m_ff * y + buf_out;
 989              		.loc 17 60 17 discriminator 2 view .LVU296
 990 03ee 7F4B     		ldr	r3, .L88+28
 991              	.LBE606:
 992              	.LBE630:
 993              	.LBB631:
 994              	.LBB593:
 995              		.loc 16 28 33 discriminator 2 view .LVU297
 996 03f0 A3EEA56A 		vfma.f32	s12, s7, s11
 997              	.LBE593:
 998              	.LBE631:
 999              	.LBB632:
 1000              	.LBB633:
 1001              		.loc 16 28 26 discriminator 2 view .LVU298
 1002 03f4 D5ED086A 		vldr.32	s13, [r5, #32]
 1003              	.LBE633:
 1004              	.LBE632:
 1005              	.LBB638:
 1006              	.LBB622:
 1007              		.loc 16 28 47 discriminator 2 view .LVU299
 1008 03f8 75EE475A 		vsub.f32	s11, s10, s14
 1009              		.loc 16 28 33 discriminator 2 view .LVU300
 1010 03fc D5ED0A3A 		vldr.32	s7, [r5, #40]
 1011              	.LBE622:
 1012              	.LBE638:
 1013              	.LBB639:
 1014              	.LBB607:
 1015              		.loc 17 60 17 discriminator 2 view .LVU301
 1016 0400 93ED005A 		vldr.32	s10, [r3]
  50:./virveldsp/src/comb.h ****     float frac = m_pos-pos;
 1017              		.loc 17 50 14 discriminator 2 view .LVU302
 1018 0404 B4F8B434 		ldrh	r3, [r4, #1204]
 1019              	.LBE607:
 1020              	.LBE639:
 1021              	.LBB640:
 1022              	.LBB623:
ARM GAS  /var/folders/z2/7_lhr9dn53s9tj4s0rwtyswm0000gn/T//ccOZi2Cx.s 			page 38


 1023              		.loc 16 28 33 discriminator 2 view .LVU303
 1024 0408 A3EEA57A 		vfma.f32	s14, s7, s11
 1025              	.LBE623:
 1026              	.LBE640:
 1027              	.LBB641:
 1028              	.LBB634:
 1029 040c 95ED074A 		vldr.32	s8, [r5, #28]
 1030              		.loc 16 28 47 discriminator 2 view .LVU304
 1031 0410 77EEE65A 		vsub.f32	s11, s15, s13
 1032              	.LBE634:
 1033              	.LBE641:
 1034              	.LBB642:
 1035              	.LBB608:
  57:./virveldsp/src/comb.h ****     float y = in - buf_out* m_fb;
 1036              		.loc 17 57 11 discriminator 2 view .LVU305
 1037 0414 04EB8300 		add	r0, r4, r3, lsl #2
 1038              	.LBE608:
 1039              	.LBE642:
 1040              	.LBB643:
 1041              	.LBB594:
 1042              		.loc 16 28 24 discriminator 2 view .LVU306
 1043 0418 85ED026A 		vstr.32	s12, [r5, #8]
  29:./virveldsp/src/lowpass.h ****                 return m_prev; 
 1044              		.loc 16 29 17 is_stmt 1 discriminator 2 view .LVU307
 1045              	.LVL46:
 1046              		.loc 16 29 17 is_stmt 0 discriminator 2 view .LVU308
 1047              	.LBE594:
 1048              	.LBE643:
  91:MPR121.cpp    ****         c = lps[2].process(b);
 1049              		.loc 14 91 9 is_stmt 1 discriminator 2 view .LVU309
 1050              	.LBB644:
 1051              	.LBI595:
  27:./virveldsp/src/lowpass.h ****                 m_prev = m_prev + m_fac * (in - m_prev);
 1052              		.loc 16 27 26 discriminator 2 view .LVU310
 1053              	.LBB600:
  28:./virveldsp/src/lowpass.h ****                 return m_prev; 
 1054              		.loc 16 28 17 discriminator 2 view .LVU311
 1055              	.LBE600:
 1056              	.LBE644:
 1057              	.LBB645:
 1058              	.LBB609:
  61:./virveldsp/src/comb.h **** 
  62:./virveldsp/src/comb.h ****     m_prev = out;
  63:./virveldsp/src/comb.h ****     m_pos += 1;
 1059              		.loc 17 63 11 is_stmt 0 discriminator 2 view .LVU312
 1060 041c 0133     		adds	r3, r3, #1
  53:./virveldsp/src/comb.h ****     float b = m_buf[(pos+1)%m_size];
 1061              		.loc 17 53 25 discriminator 2 view .LVU313
 1062 041e B4F800C0 		ldrh	ip, [r4]
 1063              	.LBE609:
 1064              	.LBE645:
 1065              	.LBB646:
 1066              	.LBB635:
  28:./virveldsp/src/lowpass.h ****                 return m_prev; 
 1067              		.loc 16 28 33 discriminator 2 view .LVU314
 1068 0422 E4EE256A 		vfma.f32	s13, s8, s11
 1069              	.LBE635:
ARM GAS  /var/folders/z2/7_lhr9dn53s9tj4s0rwtyswm0000gn/T//ccOZi2Cx.s 			page 39


 1070              	.LBE646:
 1071              	.LBB647:
 1072              	.LBB610:
  57:./virveldsp/src/comb.h ****     float y = in - buf_out* m_fb;
 1073              		.loc 17 57 11 discriminator 2 view .LVU315
 1074 0426 D0ED015A 		vldr.32	s11, [r0, #4]
 1075              		.loc 17 63 11 discriminator 2 view .LVU316
 1076 042a 9BB2     		uxth	r3, r3
  62:./virveldsp/src/comb.h ****     m_pos += 1;
 1077              		.loc 17 62 12 discriminator 2 view .LVU317
 1078 042c 704A     		ldr	r2, .L88+32
  58:./virveldsp/src/comb.h ****     m_buf[pos] = y;
 1079              		.loc 17 58 11 discriminator 2 view .LVU318
 1080 042e A5EEE46A 		vfms.f32	s12, s11, s9
 1081              	.LBE610:
 1082              	.LBE647:
 1083              	.LBB648:
 1084              	.LBB601:
  28:./virveldsp/src/lowpass.h ****                 return m_prev; 
 1085              		.loc 16 28 24 discriminator 2 view .LVU319
 1086 0432 C5ED057A 		vstr.32	s15, [r5, #20]
 1087              		.loc 16 29 17 is_stmt 1 discriminator 2 view .LVU320
 1088              	.LVL47:
 1089              		.loc 16 29 17 is_stmt 0 discriminator 2 view .LVU321
 1090              	.LBE601:
 1091              	.LBE648:
  92:MPR121.cpp    ****         d = lps[3].process(d);
 1092              		.loc 14 92 9 is_stmt 1 discriminator 2 view .LVU322
 1093              	.LBB649:
 1094              	.LBI632:
  27:./virveldsp/src/lowpass.h ****                 m_prev = m_prev + m_fac * (in - m_prev);
 1095              		.loc 16 27 26 discriminator 2 view .LVU323
 1096              	.LBB636:
  28:./virveldsp/src/lowpass.h ****                 return m_prev; 
 1097              		.loc 16 28 17 discriminator 2 view .LVU324
 1098              	.LBE636:
 1099              	.LBE649:
 1100              	.LBB650:
 1101              	.LBB611:
  64:./virveldsp/src/comb.h ****      
  65:./virveldsp/src/comb.h ****     if (m_pos >= m_size)
 1102              		.loc 17 65 5 is_stmt 0 discriminator 2 view .LVU325
 1103 0436 9C45     		cmp	ip, r3
 1104              	.LBE611:
 1105              	.LBE650:
 1106              	.LBB651:
 1107              	.LBB624:
  28:./virveldsp/src/lowpass.h ****                 return m_prev; 
 1108              		.loc 16 28 24 discriminator 2 view .LVU326
 1109 0438 85ED0B7A 		vstr.32	s14, [r5, #44]
 1110              	.LBE624:
 1111              	.LBE651:
 1112              	.LBB652:
 1113              	.LBB612:
  66:./virveldsp/src/comb.h ****         m_pos -= m_size;
 1114              		.loc 17 66 15 discriminator 2 view .LVU327
 1115 043c 98BF     		it	ls
ARM GAS  /var/folders/z2/7_lhr9dn53s9tj4s0rwtyswm0000gn/T//ccOZi2Cx.s 			page 40


 1116 043e A3EB0C03 		subls	r3, r3, ip
 1117              	.LBE612:
 1118              	.LBE652:
 1119              	.LBB653:
 1120              	.LBB654:
  53:./virveldsp/src/comb.h ****     float b = m_buf[(pos+1)%m_size];
 1121              		.loc 17 53 25 discriminator 2 view .LVU328
 1122 0442 B4F8C8C4 		ldrh	ip, [r4, #1224]
 1123              	.LBE654:
 1124              	.LBE653:
 1125              	.LBB661:
 1126              	.LBB637:
  28:./virveldsp/src/lowpass.h ****                 return m_prev; 
 1127              		.loc 16 28 24 discriminator 2 view .LVU329
 1128 0446 C5ED086A 		vstr.32	s13, [r5, #32]
 1129              		.loc 16 29 17 is_stmt 1 discriminator 2 view .LVU330
 1130              	.LVL48:
 1131              		.loc 16 29 17 is_stmt 0 discriminator 2 view .LVU331
 1132              	.LBE637:
 1133              	.LBE661:
  93:MPR121.cpp    **** 
 1134              		.loc 14 93 9 is_stmt 1 discriminator 2 view .LVU332
 1135              	.LBB662:
 1136              	.LBI619:
  27:./virveldsp/src/lowpass.h ****                 m_prev = m_prev + m_fac * (in - m_prev);
 1137              		.loc 16 27 26 discriminator 2 view .LVU333
 1138              	.LBB625:
  28:./virveldsp/src/lowpass.h ****                 return m_prev; 
 1139              		.loc 16 28 17 discriminator 2 view .LVU334
 1140              		.loc 16 29 17 discriminator 2 view .LVU335
 1141              		.loc 16 29 17 is_stmt 0 discriminator 2 view .LVU336
 1142              	.LBE625:
 1143              	.LBE662:
  95:MPR121.cpp    ****         b = aps[1].process(b);
 1144              		.loc 14 95 9 is_stmt 1 discriminator 2 view .LVU337
 1145              	.LBB663:
 1146              	.LBI603:
  48:./virveldsp/src/comb.h **** 
 1147              		.loc 17 48 14 discriminator 2 view .LVU338
 1148              	.LBB613:
 1149              		.loc 17 66 15 is_stmt 0 discriminator 2 view .LVU339
 1150 044a A4F8B434 		strh	r3, [r4, #1204]	@ movhi
  60:./virveldsp/src/comb.h **** 
 1151              		.loc 17 60 17 discriminator 2 view .LVU340
 1152 044e E6EE055A 		vfma.f32	s11, s12, s10
 1153              	.LVL49:
  60:./virveldsp/src/comb.h **** 
 1154              		.loc 17 60 17 discriminator 2 view .LVU341
 1155              	.LBE613:
 1156              	.LBE663:
  96:MPR121.cpp    ****         c = aps[2].process(c);
 1157              		.loc 14 96 9 is_stmt 1 discriminator 2 view .LVU342
 1158              	.LBB664:
 1159              	.LBI653:
  48:./virveldsp/src/comb.h **** 
 1160              		.loc 17 48 14 discriminator 2 view .LVU343
 1161              	.LBB655:
ARM GAS  /var/folders/z2/7_lhr9dn53s9tj4s0rwtyswm0000gn/T//ccOZi2Cx.s 			page 41


  58:./virveldsp/src/comb.h ****     m_buf[pos] = y;
 1162              		.loc 17 58 11 is_stmt 0 discriminator 2 view .LVU344
 1163 0452 684B     		ldr	r3, .L88+36
 1164              	.LBE655:
 1165              	.LBE664:
 1166              	.LBB665:
 1167              	.LBB614:
  59:./virveldsp/src/comb.h ****     const float out = m_ff * y + buf_out;
 1168              		.loc 17 59 16 discriminator 2 view .LVU345
 1169 0454 80ED016A 		vstr.32	s12, [r0, #4]
  59:./virveldsp/src/comb.h ****     const float out = m_ff * y + buf_out;
 1170              		.loc 17 59 16 discriminator 2 view .LVU346
 1171              	.LBE614:
 1172              	.LBE665:
 1173              	.LBB666:
 1174              	.LBB656:
  60:./virveldsp/src/comb.h **** 
 1175              		.loc 17 60 17 discriminator 2 view .LVU347
 1176 0458 13ED015A 		vldr.32	s10, [r3, #-4]
  58:./virveldsp/src/comb.h ****     m_buf[pos] = y;
 1177              		.loc 17 58 11 discriminator 2 view .LVU348
 1178 045c D3ED004A 		vldr.32	s9, [r3]
  50:./virveldsp/src/comb.h ****     float frac = m_pos-pos;
 1179              		.loc 17 50 14 discriminator 2 view .LVU349
 1180 0460 B4F87C39 		ldrh	r3, [r4, #2428]
 1181              	.LVL50:
  50:./virveldsp/src/comb.h ****     float frac = m_pos-pos;
 1182              		.loc 17 50 14 discriminator 2 view .LVU350
 1183              	.LBE656:
 1184              	.LBE666:
 1185              	.LBB667:
 1186              	.LBB615:
  62:./virveldsp/src/comb.h ****     m_pos += 1;
 1187              		.loc 17 62 12 discriminator 2 view .LVU351
 1188 0464 C2ED005A 		vstr.32	s11, [r2]
 1189              	.LBE615:
 1190              	.LBE667:
 1191              	.LBB668:
 1192              	.LBB657:
  57:./virveldsp/src/comb.h ****     float y = in - buf_out* m_fb;
 1193              		.loc 17 57 11 discriminator 2 view .LVU352
 1194 0468 634A     		ldr	r2, .L88+40
 1195 046a 02EB8300 		add	r0, r2, r3, lsl #2
  63:./virveldsp/src/comb.h ****      
 1196              		.loc 17 63 11 discriminator 2 view .LVU353
 1197 046e 0133     		adds	r3, r3, #1
 1198              	.LVL51:
  62:./virveldsp/src/comb.h ****     m_pos += 1;
 1199              		.loc 17 62 12 discriminator 2 view .LVU354
 1200 0470 02F59762 		add	r2, r2, #1208
  57:./virveldsp/src/comb.h ****     float y = in - buf_out* m_fb;
 1201              		.loc 17 57 11 discriminator 2 view .LVU355
 1202 0474 90ED006A 		vldr.32	s12, [r0]
 1203              	.LVL52:
  63:./virveldsp/src/comb.h ****      
 1204              		.loc 17 63 11 discriminator 2 view .LVU356
 1205 0478 9BB2     		uxth	r3, r3
ARM GAS  /var/folders/z2/7_lhr9dn53s9tj4s0rwtyswm0000gn/T//ccOZi2Cx.s 			page 42


 1206              	.LVL53:
  58:./virveldsp/src/comb.h ****     m_buf[pos] = y;
 1207              		.loc 17 58 11 discriminator 2 view .LVU357
 1208 047a E6EE647A 		vfms.f32	s15, s12, s9
 1209              	.LVL54:
  65:./virveldsp/src/comb.h ****         m_pos -= m_size;
 1210              		.loc 17 65 5 discriminator 2 view .LVU358
 1211 047e 9C45     		cmp	ip, r3
 1212              		.loc 17 66 15 discriminator 2 view .LVU359
 1213 0480 98BF     		it	ls
 1214 0482 A3EB0C03 		subls	r3, r3, ip
 1215 0486 A4F87C39 		strh	r3, [r4, #2428]	@ movhi
 1216              	.LVL55:
 1217              		.loc 17 66 15 discriminator 2 view .LVU360
 1218              	.LBE657:
 1219              	.LBE668:
 1220              	.LBB669:
 1221              	.LBB670:
  58:./virveldsp/src/comb.h ****     m_buf[pos] = y;
 1222              		.loc 17 58 11 discriminator 2 view .LVU361
 1223 048a 5C4B     		ldr	r3, .L88+44
 1224              	.LBE670:
 1225              	.LBE669:
 1226              	.LBB678:
 1227              	.LBB658:
  60:./virveldsp/src/comb.h **** 
 1228              		.loc 17 60 17 discriminator 2 view .LVU362
 1229 048c A7EE856A 		vfma.f32	s12, s15, s10
 1230              	.LVL56:
  60:./virveldsp/src/comb.h **** 
 1231              		.loc 17 60 17 discriminator 2 view .LVU363
 1232              	.LBE658:
 1233              	.LBE678:
  97:MPR121.cpp    ****         d = aps[3].process(d);
 1234              		.loc 14 97 9 is_stmt 1 discriminator 2 view .LVU364
 1235              	.LBB679:
 1236              	.LBI669:
  48:./virveldsp/src/comb.h **** 
 1237              		.loc 17 48 14 discriminator 2 view .LVU365
 1238              	.LBE679:
 1239              	.LBB680:
 1240              	.LBB659:
  59:./virveldsp/src/comb.h ****     const float out = m_ff * y + buf_out;
 1241              		.loc 17 59 16 is_stmt 0 discriminator 2 view .LVU366
 1242 0490 C0ED007A 		vstr.32	s15, [r0]
  59:./virveldsp/src/comb.h ****     const float out = m_ff * y + buf_out;
 1243              		.loc 17 59 16 discriminator 2 view .LVU367
 1244              	.LBE659:
 1245              	.LBE680:
 1246              	.LBB681:
 1247              	.LBB671:
  58:./virveldsp/src/comb.h ****     m_buf[pos] = y;
 1248              		.loc 17 58 11 discriminator 2 view .LVU368
 1249 0494 93ED004A 		vldr.32	s8, [r3]
 1250 0498 F0EE667A 		vmov.f32	s15, s13
 1251              	.LBE671:
 1252              	.LBE681:
ARM GAS  /var/folders/z2/7_lhr9dn53s9tj4s0rwtyswm0000gn/T//ccOZi2Cx.s 			page 43


 1253              	.LBB682:
 1254              	.LBB660:
  62:./virveldsp/src/comb.h ****     m_pos += 1;
 1255              		.loc 17 62 12 discriminator 2 view .LVU369
 1256 049c 82ED006A 		vstr.32	s12, [r2]
 1257              	.LBE660:
 1258              	.LBE682:
 1259              	.LBB683:
 1260              	.LBB672:
  60:./virveldsp/src/comb.h **** 
 1261              		.loc 17 60 17 discriminator 2 view .LVU370
 1262 04a0 53ED014A 		vldr.32	s9, [r3, #-4]
  57:./virveldsp/src/comb.h ****     float y = in - buf_out* m_fb;
 1263              		.loc 17 57 11 discriminator 2 view .LVU371
 1264 04a4 564A     		ldr	r2, .L88+48
  50:./virveldsp/src/comb.h ****     float frac = m_pos-pos;
 1265              		.loc 17 50 14 discriminator 2 view .LVU372
 1266 04a6 B4F8443E 		ldrh	r3, [r4, #3652]
 1267              	.LVL57:
  53:./virveldsp/src/comb.h ****     float b = m_buf[(pos+1)%m_size];
 1268              		.loc 17 53 25 discriminator 2 view .LVU373
 1269 04aa B4F890C9 		ldrh	ip, [r4, #2448]
 1270              	.LVL58:
  57:./virveldsp/src/comb.h ****     float y = in - buf_out* m_fb;
 1271              		.loc 17 57 11 discriminator 2 view .LVU374
 1272 04ae 02EB8300 		add	r0, r2, r3, lsl #2
  63:./virveldsp/src/comb.h ****      
 1273              		.loc 17 63 11 discriminator 2 view .LVU375
 1274 04b2 0133     		adds	r3, r3, #1
 1275              	.LVL59:
  62:./virveldsp/src/comb.h ****     m_pos += 1;
 1276              		.loc 17 62 12 discriminator 2 view .LVU376
 1277 04b4 02F59762 		add	r2, r2, #1208
  57:./virveldsp/src/comb.h ****     float y = in - buf_out* m_fb;
 1278              		.loc 17 57 11 discriminator 2 view .LVU377
 1279 04b8 90ED005A 		vldr.32	s10, [r0]
 1280              	.LVL60:
  63:./virveldsp/src/comb.h ****      
 1281              		.loc 17 63 11 discriminator 2 view .LVU378
 1282 04bc 9BB2     		uxth	r3, r3
 1283              	.LVL61:
  58:./virveldsp/src/comb.h ****     m_buf[pos] = y;
 1284              		.loc 17 58 11 discriminator 2 view .LVU379
 1285 04be E5EE447A 		vfms.f32	s15, s10, s8
 1286              	.LVL62:
  65:./virveldsp/src/comb.h ****         m_pos -= m_size;
 1287              		.loc 17 65 5 discriminator 2 view .LVU380
 1288 04c2 9C45     		cmp	ip, r3
  60:./virveldsp/src/comb.h **** 
 1289              		.loc 17 60 17 discriminator 2 view .LVU381
 1290 04c4 F0EE456A 		vmov.f32	s13, s10
 1291              	.LVL63:
  60:./virveldsp/src/comb.h **** 
 1292              		.loc 17 60 17 discriminator 2 view .LVU382
 1293              	.LBE672:
 1294              	.LBE683:
 1295              	.LBB684:
ARM GAS  /var/folders/z2/7_lhr9dn53s9tj4s0rwtyswm0000gn/T//ccOZi2Cx.s 			page 44


 1296              	.LBB685:
  58:./virveldsp/src/comb.h ****     m_buf[pos] = y;
 1297              		.loc 17 58 11 discriminator 2 view .LVU383
 1298 04c8 9AEDC74A 		vldr.32	s8, [r10, #796]
 1299              	.LBE685:
 1300              	.LBE684:
 1301              	.LBB693:
 1302              	.LBB673:
 1303              		.loc 17 66 15 discriminator 2 view .LVU384
 1304 04cc 98BF     		it	ls
 1305 04ce A3EB0C03 		subls	r3, r3, ip
 1306              	.LBE673:
 1307              	.LBE693:
 1308              	.LBB694:
 1309              	.LBB686:
  53:./virveldsp/src/comb.h ****     float b = m_buf[(pos+1)%m_size];
 1310              		.loc 17 53 25 discriminator 2 view .LVU385
 1311 04d2 B4F858CE 		ldrh	ip, [r4, #3672]
 1312              	.LVL64:
  53:./virveldsp/src/comb.h ****     float b = m_buf[(pos+1)%m_size];
 1313              		.loc 17 53 25 discriminator 2 view .LVU386
 1314              	.LBE686:
 1315              	.LBE694:
 1316              	.LBB695:
 1317              	.LBB674:
 1318              		.loc 17 66 15 discriminator 2 view .LVU387
 1319 04d6 A4F8443E 		strh	r3, [r4, #3652]	@ movhi
 1320              	.LVL65:
 1321              		.loc 17 66 15 discriminator 2 view .LVU388
 1322              	.LBE674:
 1323              	.LBE695:
 1324              	.LBB696:
 1325              	.LBB687:
  50:./virveldsp/src/comb.h ****     float frac = m_pos-pos;
 1326              		.loc 17 50 14 discriminator 2 view .LVU389
 1327 04da BAF80C33 		ldrh	r3, [r10, #780]
 1328              	.LBE687:
 1329              	.LBE696:
 1330              	.LBB697:
 1331              	.LBB675:
  60:./virveldsp/src/comb.h **** 
 1332              		.loc 17 60 17 discriminator 2 view .LVU390
 1333 04de E7EEA46A 		vfma.f32	s13, s15, s9
 1334              	.LVL66:
  60:./virveldsp/src/comb.h **** 
 1335              		.loc 17 60 17 discriminator 2 view .LVU391
 1336              	.LBE675:
 1337              	.LBE697:
  98:MPR121.cpp    **** 
 1338              		.loc 14 98 9 is_stmt 1 discriminator 2 view .LVU392
 1339              	.LBB698:
 1340              	.LBI684:
  48:./virveldsp/src/comb.h **** 
 1341              		.loc 17 48 14 discriminator 2 view .LVU393
  48:./virveldsp/src/comb.h **** 
 1342              		.loc 17 48 14 is_stmt 0 discriminator 2 view .LVU394
 1343              	.LBE698:
ARM GAS  /var/folders/z2/7_lhr9dn53s9tj4s0rwtyswm0000gn/T//ccOZi2Cx.s 			page 45


 1344              	.LBB699:
 1345              	.LBB676:
  59:./virveldsp/src/comb.h ****     const float out = m_ff * y + buf_out;
 1346              		.loc 17 59 16 discriminator 2 view .LVU395
 1347 04e2 C0ED007A 		vstr.32	s15, [r0]
 1348              	.LBE676:
 1349              	.LBE699:
 1350              	.LBB700:
 1351              	.LBB688:
  58:./virveldsp/src/comb.h ****     m_buf[pos] = y;
 1352              		.loc 17 58 11 discriminator 2 view .LVU396
 1353 04e6 F0EE477A 		vmov.f32	s15, s14
  60:./virveldsp/src/comb.h **** 
 1354              		.loc 17 60 17 discriminator 2 view .LVU397
 1355 04ea DAEDC64A 		vldr.32	s9, [r10, #792]
 1356              	.LBE688:
 1357              	.LBE700:
 1358              	.LBB701:
 1359              	.LBB677:
  62:./virveldsp/src/comb.h ****     m_pos += 1;
 1360              		.loc 17 62 12 discriminator 2 view .LVU398
 1361 04ee C2ED006A 		vstr.32	s13, [r2]
 1362              	.LBE677:
 1363              	.LBE701:
 1364              	.LBB702:
 1365              	.LBB689:
  57:./virveldsp/src/comb.h ****     float y = in - buf_out* m_fb;
 1366              		.loc 17 57 11 discriminator 2 view .LVU399
 1367 04f2 444A     		ldr	r2, .L88+52
 1368 04f4 02EB8300 		add	r0, r2, r3, lsl #2
  63:./virveldsp/src/comb.h ****      
 1369              		.loc 17 63 11 discriminator 2 view .LVU400
 1370 04f8 0133     		adds	r3, r3, #1
 1371              	.LVL67:
  57:./virveldsp/src/comb.h ****     float y = in - buf_out* m_fb;
 1372              		.loc 17 57 11 discriminator 2 view .LVU401
 1373 04fa 90ED005A 		vldr.32	s10, [r0]
 1374              	.LVL68:
  63:./virveldsp/src/comb.h ****      
 1375              		.loc 17 63 11 discriminator 2 view .LVU402
 1376 04fe 9BB2     		uxth	r3, r3
 1377              	.LVL69:
  58:./virveldsp/src/comb.h ****     m_buf[pos] = y;
 1378              		.loc 17 58 11 discriminator 2 view .LVU403
 1379 0500 E5EE447A 		vfms.f32	s15, s10, s8
 1380              	.LVL70:
  65:./virveldsp/src/comb.h ****         m_pos -= m_size;
 1381              		.loc 17 65 5 discriminator 2 view .LVU404
 1382 0504 9C45     		cmp	ip, r3
  60:./virveldsp/src/comb.h **** 
 1383              		.loc 17 60 17 discriminator 2 view .LVU405
 1384 0506 B0EE457A 		vmov.f32	s14, s10
 1385              	.LVL71:
 1386              		.loc 17 66 15 discriminator 2 view .LVU406
 1387 050a 98BF     		it	ls
 1388 050c A3EB0C03 		subls	r3, r3, ip
 1389 0510 AAF80C33 		strh	r3, [r10, #780]	@ movhi
ARM GAS  /var/folders/z2/7_lhr9dn53s9tj4s0rwtyswm0000gn/T//ccOZi2Cx.s 			page 46


 1390              	.LVL72:
 1391              		.loc 17 66 15 discriminator 2 view .LVU407
 1392              	.LBE689:
 1393              	.LBE702:
 1394              	.LBB703:
 1395              	.LBB704:
  25:./virveldsp/src/delay.h ****                 m_writePtr -= m_delayTime;
 1396              		.loc 15 25 17 discriminator 2 view .LVU408
 1397 0514 B7F8683B 		ldrh	r3, [r7, #2920]
 1398              	.LBE704:
 1399              	.LBE703:
 1400              	.LBB710:
 1401              	.LBB690:
  60:./virveldsp/src/comb.h **** 
 1402              		.loc 17 60 17 discriminator 2 view .LVU409
 1403 0518 A7EEA47A 		vfma.f32	s14, s15, s9
 1404              	.LVL73:
  60:./virveldsp/src/comb.h **** 
 1405              		.loc 17 60 17 discriminator 2 view .LVU410
 1406              	.LBE690:
 1407              	.LBE710:
 100:MPR121.cpp    ****         a = ds[0].read();
 1408              		.loc 14 100 9 is_stmt 1 discriminator 2 view .LVU411
 1409              	.LBB711:
 1410              	.LBI703:
  24:./virveldsp/src/delay.h ****             if (m_writePtr >= m_delayTime)
 1411              		.loc 15 24 21 discriminator 2 view .LVU412
 1412              	.LBE711:
 1413              	.LBB712:
 1414              	.LBB691:
  59:./virveldsp/src/comb.h ****     const float out = m_ff * y + buf_out;
 1415              		.loc 17 59 16 is_stmt 0 discriminator 2 view .LVU413
 1416 051c C0ED007A 		vstr.32	s15, [r0]
  59:./virveldsp/src/comb.h ****     const float out = m_ff * y + buf_out;
 1417              		.loc 17 59 16 discriminator 2 view .LVU414
 1418              	.LBE691:
 1419              	.LBE712:
 1420              	.LBB713:
 1421              	.LBB705:
  25:./virveldsp/src/delay.h ****                 m_writePtr -= m_delayTime;
 1422              		.loc 15 25 28 discriminator 2 view .LVU415
 1423 0520 07EE903A 		vmov	s15, r3	@ int
  25:./virveldsp/src/delay.h ****                 m_writePtr -= m_delayTime;
 1424              		.loc 15 25 31 discriminator 2 view .LVU416
 1425 0524 07F66C30 		addw	r0, r7, #2924
  25:./virveldsp/src/delay.h ****                 m_writePtr -= m_delayTime;
 1426              		.loc 15 25 28 discriminator 2 view .LVU417
 1427 0528 B8EEE75A 		vcvt.f32.s32	s10, s15
  25:./virveldsp/src/delay.h ****                 m_writePtr -= m_delayTime;
 1428              		.loc 15 25 31 discriminator 2 view .LVU418
 1429 052c D0ED004A 		vldr.32	s9, [r0]
  25:./virveldsp/src/delay.h ****                 m_writePtr -= m_delayTime;
 1430              		.loc 15 25 13 discriminator 2 view .LVU419
 1431 0530 B4EEE45A 		vcmpe.f32	s10, s9
 1432              	.LBE705:
 1433              	.LBE713:
 1434              	.LBB714:
ARM GAS  /var/folders/z2/7_lhr9dn53s9tj4s0rwtyswm0000gn/T//ccOZi2Cx.s 			page 47


 1435              	.LBB692:
  62:./virveldsp/src/comb.h ****     m_pos += 1;
 1436              		.loc 17 62 12 discriminator 2 view .LVU420
 1437 0534 8AEDC57A 		vstr.32	s14, [r10, #788]
 1438              	.LBE692:
 1439              	.LBE714:
 1440              	.LBB715:
 1441              	.LBB706:
  25:./virveldsp/src/delay.h ****                 m_writePtr -= m_delayTime;
 1442              		.loc 15 25 13 discriminator 2 view .LVU421
 1443 0538 F1EE10FA 		vmrs	APSR_nzcv, FPSCR
 1444 053c 06DB     		blt	.L16
  26:./virveldsp/src/delay.h **** 
 1445              		.loc 15 26 28 view .LVU422
 1446 053e 35EE645A 		vsub.f32	s10, s10, s9
 1447 0542 BCEEC55A 		vcvt.u32.f32	s10, s10
 1448 0546 15EE103A 		vmov	r3, s10	@ int
 1449 054a 9BB2     		uxth	r3, r3
 1450              	.L16:
 1451              	.LBE706:
 1452              	.LBE715:
 1453              	.LBB716:
 1454              	.LBB530:
  38:./virveldsp/src/delay.h **** 
 1455              		.loc 15 38 23 view .LVU423
 1456 054c 07F66430 		addw	r0, r7, #2916
 1457 0550 B7EE005A 		vmov.f32	s10, #1.0e+0
 1458              	.LBE530:
 1459              	.LBE716:
 1460              	.LBB717:
 1461              	.LBB707:
  28:./virveldsp/src/delay.h ****             m_writePtr++;
 1462              		.loc 15 28 34 view .LVU424
 1463 0554 009A     		ldr	r2, [sp]
 1464              	.LBE707:
 1465              	.LBE717:
 1466              	.LBB718:
 1467              	.LBB531:
  38:./virveldsp/src/delay.h **** 
 1468              		.loc 15 38 23 view .LVU425
 1469 0556 D0ED007A 		vldr.32	s15, [r0]
 1470              	.LBE531:
 1471              	.LBE718:
 1472              	.LBB719:
 1473              	.LBB708:
  28:./virveldsp/src/delay.h ****             m_writePtr++;
 1474              		.loc 15 28 34 view .LVU426
 1475 055a 02EB830C 		add	ip, r2, r3, lsl #2
  29:./virveldsp/src/delay.h ****         }
 1476              		.loc 15 29 13 view .LVU427
 1477 055e 0133     		adds	r3, r3, #1
 1478              	.LBE708:
 1479              	.LBE719:
 1480              	.LBB720:
 1481              	.LBB532:
  38:./virveldsp/src/delay.h **** 
 1482              		.loc 15 38 23 view .LVU428
ARM GAS  /var/folders/z2/7_lhr9dn53s9tj4s0rwtyswm0000gn/T//ccOZi2Cx.s 			page 48


 1483 0560 77EE857A 		vadd.f32	s15, s15, s10
 1484              	.LBE532:
 1485              	.LBE720:
 1486              	.LBB721:
 1487              	.LBB709:
  28:./virveldsp/src/delay.h ****             m_writePtr++;
 1488              		.loc 15 28 34 view .LVU429
 1489 0564 CCED005A 		vstr.32	s11, [ip]
  29:./virveldsp/src/delay.h ****         }
 1490              		.loc 15 29 13 view .LVU430
 1491 0568 A7F8683B 		strh	r3, [r7, #2920]	@ movhi
 1492              	.LVL74:
  29:./virveldsp/src/delay.h ****         }
 1493              		.loc 15 29 13 view .LVU431
 1494              	.LBE709:
 1495              	.LBE721:
 101:MPR121.cpp    ****         ds[1].write(b);
 1496              		.loc 14 101 9 is_stmt 1 view .LVU432
 1497              	.LBB722:
 1498              	.LBI528:
  36:./virveldsp/src/delay.h **** 
 1499              		.loc 15 36 22 view .LVU433
 1500              	.LBB533:
  44:./virveldsp/src/delay.h ****                 return m_buffer[1];
 1501              		.loc 15 44 13 is_stmt 0 view .LVU434
 1502 056c F4EEC57A 		vcmpe.f32	s15, s10
  38:./virveldsp/src/delay.h **** 
 1503              		.loc 15 38 23 view .LVU435
 1504 0570 C0ED007A 		vstr.32	s15, [r0]
  44:./virveldsp/src/delay.h ****                 return m_buffer[1];
 1505              		.loc 15 44 13 view .LVU436
 1506 0574 F1EE10FA 		vmrs	APSR_nzcv, FPSCR
 1507 0578 3FF666AD 		bhi	.L66
  45:./virveldsp/src/delay.h ****             if (m_readPtr >= (m_maxSize-1))
 1508              		.loc 15 45 34 view .LVU437
 1509 057c 92ED010A 		vldr.32	s0, [r2, #4]
 1510 0580 97E5     		b	.L20
 1511              	.LVL75:
 1512              	.L84:
  45:./virveldsp/src/delay.h ****             if (m_readPtr >= (m_maxSize-1))
 1513              		.loc 15 45 34 view .LVU438
 1514              	.LBE533:
 1515              	.LBE722:
 1516              	.LBB723:
 1517              	.LBB580:
 1518 0582 96ED989A 		vldr.32	s18, [r6, #608]
 1519 0586 B7E6     		b	.L44
 1520              	.LVL76:
 1521              	.L80:
  45:./virveldsp/src/delay.h ****             if (m_readPtr >= (m_maxSize-1))
 1522              		.loc 15 45 34 view .LVU439
 1523              	.LBE580:
 1524              	.LBE723:
 1525              	.LBB724:
 1526              	.LBB545:
 1527 0588 07F67833 		addw	r3, r7, #2936
 1528 058c D3ED009A 		vldr.32	s19, [r3]
ARM GAS  /var/folders/z2/7_lhr9dn53s9tj4s0rwtyswm0000gn/T//ccOZi2Cx.s 			page 49


 1529 0590 F3E5     		b	.L28
 1530              	.LVL77:
 1531              	.L82:
  45:./virveldsp/src/delay.h ****             if (m_readPtr >= (m_maxSize-1))
 1532              		.loc 15 45 34 view .LVU440
 1533              	.LBE545:
 1534              	.LBE724:
 1535              	.LBB725:
 1536              	.LBB562:
 1537 0592 08F2EC63 		addw	r3, r8, #1772
 1538 0596 D3ED008A 		vldr.32	s17, [r3]
 1539 059a 4CE6     		b	.L36
 1540              	.LVL78:
 1541              	.L81:
  45:./virveldsp/src/delay.h ****             if (m_readPtr >= (m_maxSize-1))
 1542              		.loc 15 45 34 view .LVU441
 1543              	.LBE562:
 1544              	.LBE725:
 1545              	.LBB726:
 1546              	.LBB546:
  47:./virveldsp/src/delay.h **** 
 1547              		.loc 15 47 46 view .LVU442
 1548 059c 00EB8303 		add	r3, r0, r3, lsl #2
 1549 05a0 D3ED009A 		vldr.32	s19, [r3]
 1550 05a4 E9E5     		b	.L28
 1551              	.LVL79:
 1552              	.L85:
  47:./virveldsp/src/delay.h **** 
 1553              		.loc 15 47 46 view .LVU443
 1554              	.LBE546:
 1555              	.LBE726:
 1556              	.LBB727:
 1557              	.LBB581:
 1558 05a6 06EB8303 		add	r3, r6, r3, lsl #2
 1559 05aa 93ED979A 		vldr.32	s18, [r3, #604]
 1560 05ae A3E6     		b	.L44
 1561              	.LVL80:
 1562              	.L83:
  47:./virveldsp/src/delay.h **** 
 1563              		.loc 15 47 46 view .LVU444
 1564              	.LBE581:
 1565              	.LBE727:
 1566              	.LBB728:
 1567              	.LBB563:
 1568 05b0 00EB8303 		add	r3, r0, r3, lsl #2
 1569 05b4 D3ED008A 		vldr.32	s17, [r3]
 1570 05b8 3DE6     		b	.L36
 1571              	.LVL81:
 1572              	.L79:
  47:./virveldsp/src/delay.h **** 
 1573              		.loc 15 47 46 view .LVU445
 1574              	.LBE563:
 1575              	.LBE728:
 1576              	.LBB729:
 1577              	.LBB534:
 1578 05ba 009A     		ldr	r2, [sp]
 1579 05bc 02EB8303 		add	r3, r2, r3, lsl #2
ARM GAS  /var/folders/z2/7_lhr9dn53s9tj4s0rwtyswm0000gn/T//ccOZi2Cx.s 			page 50


 1580 05c0 93ED000A 		vldr.32	s0, [r3]
 1581 05c4 75E5     		b	.L20
 1582              	.LVL82:
 1583              	.L6:
  47:./virveldsp/src/delay.h **** 
 1584              		.loc 15 47 46 view .LVU446
 1585              	.LBE534:
 1586              	.LBE729:
 1587              	.LBE732:
 1588              	.LBE733:
 125:MPR121.cpp    ****     }
 126:MPR121.cpp    **** }
 1589              		.loc 14 126 1 view .LVU447
 1590 05c6 05B0     		add	sp, sp, #20
 1591              		.cfi_def_cfa_offset 52
 1592              		@ sp needed
 1593 05c8 BDEC048B 		vldm	sp!, {d8-d9}
 1594              		.cfi_restore 82
 1595              		.cfi_restore 83
 1596              		.cfi_restore 80
 1597              		.cfi_restore 81
 1598              		.cfi_def_cfa_offset 36
 1599 05cc BDE8F08F 		pop	{r4, r5, r6, r7, r8, r9, r10, fp, pc}
 1600              	.LVL83:
 1601              	.L89:
 1602              		.loc 14 126 1 view .LVU448
 1603              		.align	2
 1604              	.L88:
 1605 05d0 00000000 		.word	.LANCHOR5
 1606 05d4 00000000 		.word	.LANCHOR2
 1607 05d8 00000000 		.word	.LANCHOR6
 1608 05dc 00000000 		.word	.LANCHOR3
 1609 05e0 00000000 		.word	.LANCHOR4
 1610 05e4 00000000 		.word	.LANCHOR0
 1611 05e8 C4040000 		.word	aps+1220
 1612 05ec C0040000 		.word	aps+1216
 1613 05f0 BC040000 		.word	aps+1212
 1614 05f4 8C090000 		.word	aps+2444
 1615 05f8 CC040000 		.word	aps+1228
 1616 05fc 540E0000 		.word	aps+3668
 1617 0600 94090000 		.word	aps+2452
 1618 0604 5C0E0000 		.word	aps+3676
 1619              		.cfi_endproc
 1620              	.LFE4758:
 1622              		.section	.text._Z13AudioCallbackPKPKfPPfj,"ax",%progbits
 1623              		.align	1
 1624              		.p2align 2,,3
 1625              		.global	_Z13AudioCallbackPKPKfPPfj
 1626              		.syntax unified
 1627              		.thumb
 1628              		.thumb_func
 1630              	_Z13AudioCallbackPKPKfPPfj:
 1631              	.LVL84:
 1632              	.LFB4757:
  30:MPR121.cpp    **** 	for (size_t i = 0; i < size; i++)
 1633              		.loc 14 30 1 is_stmt 1 view -0
 1634              		.cfi_startproc
ARM GAS  /var/folders/z2/7_lhr9dn53s9tj4s0rwtyswm0000gn/T//ccOZi2Cx.s 			page 51


 1635              		@ args = 0, pretend = 0, frame = 0
 1636              		@ frame_needed = 0, uses_anonymous_args = 0
  31:MPR121.cpp    **** 	{
 1637              		.loc 14 31 2 view .LVU450
 1638              	.LBB734:
  31:MPR121.cpp    **** 	{
 1639              		.loc 14 31 23 view .LVU451
 1640 0000 02B9     		cbnz	r2, .L96
 1641 0002 7047     		bx	lr
 1642              	.L96:
 1643              	.LBB735:
  33:MPR121.cpp    **** 		out[1][i] = 0.f;
 1644              		.loc 14 33 3 view .LVU452
 1645              	.LBE735:
 1646              	.LBE734:
  30:MPR121.cpp    **** 	for (size_t i = 0; i < size; i++)
 1647              		.loc 14 30 1 is_stmt 0 view .LVU453
 1648 0004 10B5     		push	{r4, lr}
 1649              		.cfi_def_cfa_offset 8
 1650              		.cfi_offset 4, -8
 1651              		.cfi_offset 14, -4
 1652              	.LBB737:
 1653              	.LBB736:
  33:MPR121.cpp    **** 		out[1][i] = 0.f;
 1654              		.loc 14 33 13 view .LVU454
 1655 0006 0023     		movs	r3, #0
 1656 0008 0C68     		ldr	r4, [r1]
  34:MPR121.cpp    **** 
 1657              		.loc 14 34 13 view .LVU455
 1658 000a 4A68     		ldr	r2, [r1, #4]
 1659              	.LVL85:
  37:MPR121.cpp    ****         for (int j = 0;j<4;++i)
 1660              		.loc 14 37 35 view .LVU456
 1661 000c 0248     		ldr	r0, .L97
 1662              	.LVL86:
  33:MPR121.cpp    **** 		out[1][i] = 0.f;
 1663              		.loc 14 33 13 view .LVU457
 1664 000e 2360     		str	r3, [r4]	@ float
  34:MPR121.cpp    **** 
 1665              		.loc 14 34 3 is_stmt 1 view .LVU458
  34:MPR121.cpp    **** 
 1666              		.loc 14 34 13 is_stmt 0 view .LVU459
 1667 0010 1360     		str	r3, [r2]	@ float
  37:MPR121.cpp    ****         for (int j = 0;j<4;++i)
 1668              		.loc 14 37 9 is_stmt 1 view .LVU460
  37:MPR121.cpp    ****         for (int j = 0;j<4;++i)
 1669              		.loc 14 37 35 is_stmt 0 view .LVU461
 1670 0012 FFF7FEFF 		bl	_ZN7daisysp10Oscillator7ProcessEv
 1671              	.LVL87:
  38:MPR121.cpp    ****         {
 1672              		.loc 14 38 9 is_stmt 1 view .LVU462
 1673              	.L92:
  38:MPR121.cpp    ****         {
 1674              		.loc 14 38 9 is_stmt 0 view .LVU463
 1675              	.LBE736:
 1676              	.LBE737:
  38:MPR121.cpp    ****         {
ARM GAS  /var/folders/z2/7_lhr9dn53s9tj4s0rwtyswm0000gn/T//ccOZi2Cx.s 			page 52


 1677              		.loc 14 38 25 is_stmt 1 discriminator 3 view .LVU464
  40:MPR121.cpp    ****             aps[j].mod(3*lfomod);
 1678              		.loc 14 40 13 discriminator 3 view .LVU465
  41:MPR121.cpp    ****         }
 1679              		.loc 14 41 13 discriminator 3 view .LVU466
  38:MPR121.cpp    ****         {
 1680              		.loc 14 38 9 discriminator 3 view .LVU467
  38:MPR121.cpp    ****         {
 1681              		.loc 14 38 25 discriminator 3 view .LVU468
  40:MPR121.cpp    ****             aps[j].mod(3*lfomod);
 1682              		.loc 14 40 13 discriminator 3 view .LVU469
  41:MPR121.cpp    ****         }
 1683              		.loc 14 41 13 discriminator 3 view .LVU470
  38:MPR121.cpp    ****         {
 1684              		.loc 14 38 9 discriminator 3 view .LVU471
 1685 0016 FEE7     		b	.L92
 1686              	.L98:
 1687              		.align	2
 1688              	.L97:
 1689 0018 00000000 		.word	.LANCHOR7
 1690              		.cfi_endproc
 1691              	.LFE4757:
 1693              		.section	.text._Z14UpdateControlsv,"ax",%progbits
 1694              		.align	1
 1695              		.p2align 2,,3
 1696              		.global	_Z14UpdateControlsv
 1697              		.syntax unified
 1698              		.thumb
 1699              		.thumb_func
 1701              	_Z14UpdateControlsv:
 1702              	.LFB4759:
 127:MPR121.cpp    **** 
 128:MPR121.cpp    **** void UpdateControls() {
 1703              		.loc 14 128 23 view -0
 1704              		.cfi_startproc
 1705              		@ args = 0, pretend = 0, frame = 0
 1706              		@ frame_needed = 0, uses_anonymous_args = 0
 129:MPR121.cpp    ****        hw.ProcessAllControls();
 1707              		.loc 14 129 8 view .LVU473
 1708              	.LVL88:
 1709              	.LBB738:
 1710              	.LBI738:
  32:tusenskona/src/tusenskona.h **** 
  33:tusenskona/src/tusenskona.h ****     /** Init related stuff. */
  34:tusenskona/src/tusenskona.h ****     void Init(bool boost = false);
  35:tusenskona/src/tusenskona.h **** 
  36:tusenskona/src/tusenskona.h ****     /** Wait for a bit
  37:tusenskona/src/tusenskona.h ****     \param del Time to wait in ms.
  38:tusenskona/src/tusenskona.h ****     */
  39:tusenskona/src/tusenskona.h ****     void DelayMs(size_t del);
  40:tusenskona/src/tusenskona.h **** 
  41:tusenskona/src/tusenskona.h ****     /** Starts the callback
  42:tusenskona/src/tusenskona.h ****     \param cb Interleaved callback function
  43:tusenskona/src/tusenskona.h ****     */
  44:tusenskona/src/tusenskona.h ****     void StartAudio(AudioHandle::InterleavingAudioCallback cb);
  45:tusenskona/src/tusenskona.h **** 
  46:tusenskona/src/tusenskona.h ****     /** Starts the callback
ARM GAS  /var/folders/z2/7_lhr9dn53s9tj4s0rwtyswm0000gn/T//ccOZi2Cx.s 			page 53


  47:tusenskona/src/tusenskona.h ****     \param cb multichannel callback function
  48:tusenskona/src/tusenskona.h ****     */
  49:tusenskona/src/tusenskona.h ****     void StartAudio(AudioHandle::AudioCallback cb);
  50:tusenskona/src/tusenskona.h **** 
  51:tusenskona/src/tusenskona.h ****     /**
  52:tusenskona/src/tusenskona.h ****        Switch callback functions
  53:tusenskona/src/tusenskona.h ****        \param cb New interleaved callback function.
  54:tusenskona/src/tusenskona.h ****     */
  55:tusenskona/src/tusenskona.h ****     void ChangeAudioCallback(AudioHandle::InterleavingAudioCallback cb);
  56:tusenskona/src/tusenskona.h **** 
  57:tusenskona/src/tusenskona.h ****     /**
  58:tusenskona/src/tusenskona.h ****        Switch callback functions
  59:tusenskona/src/tusenskona.h ****        \param cb New multichannel callback function.
  60:tusenskona/src/tusenskona.h ****     */
  61:tusenskona/src/tusenskona.h ****     void ChangeAudioCallback(AudioHandle::AudioCallback cb);
  62:tusenskona/src/tusenskona.h **** 
  63:tusenskona/src/tusenskona.h ****     /** Stops the audio if it is running. */
  64:tusenskona/src/tusenskona.h ****     void StopAudio();
  65:tusenskona/src/tusenskona.h **** 
  66:tusenskona/src/tusenskona.h ****     /** Updates the Audio Sample Rate, and reinitializes.
  67:tusenskona/src/tusenskona.h ****      ** Audio must be stopped for this to work.
  68:tusenskona/src/tusenskona.h ****      */
  69:tusenskona/src/tusenskona.h ****     void SetAudioSampleRate(SaiHandle::Config::SampleRate samplerate);
  70:tusenskona/src/tusenskona.h **** 
  71:tusenskona/src/tusenskona.h ****     /** Returns the audio sample rate in Hz as a floating point number.
  72:tusenskona/src/tusenskona.h ****      */
  73:tusenskona/src/tusenskona.h ****     float AudioSampleRate();
  74:tusenskona/src/tusenskona.h **** 
  75:tusenskona/src/tusenskona.h ****     /** Sets the number of samples processed per channel by the audio callback.
  76:tusenskona/src/tusenskona.h ****      */
  77:tusenskona/src/tusenskona.h ****     void SetAudioBlockSize(size_t blocksize);
  78:tusenskona/src/tusenskona.h **** 
  79:tusenskona/src/tusenskona.h ****     /** Returns the number of samples per channel in a block of audio. */
  80:tusenskona/src/tusenskona.h ****     size_t AudioBlockSize();
  81:tusenskona/src/tusenskona.h **** 
  82:tusenskona/src/tusenskona.h ****     /** Returns the rate in Hz that the Audio callback is called */
  83:tusenskona/src/tusenskona.h ****     float AudioCallbackRate();
  84:tusenskona/src/tusenskona.h **** 
  85:tusenskona/src/tusenskona.h ****     /**
  86:tusenskona/src/tusenskona.h ****        Start analog to digital conversion.
  87:tusenskona/src/tusenskona.h ****      */
  88:tusenskona/src/tusenskona.h ****     void StartAdc();
  89:tusenskona/src/tusenskona.h **** 
  90:tusenskona/src/tusenskona.h ****     /** Stops Transfering data from the ADC */
  91:tusenskona/src/tusenskona.h ****     void StopAdc();
  92:tusenskona/src/tusenskona.h **** 
  93:tusenskona/src/tusenskona.h ****     /** Call at same rate as analog reads for smooth reading.*/
  94:tusenskona/src/tusenskona.h ****     void ProcessAnalogControls();
  95:tusenskona/src/tusenskona.h **** 
  96:tusenskona/src/tusenskona.h ****     /** Process Analog and Digital Controls */
  97:tusenskona/src/tusenskona.h ****     inline void ProcessAllControls()
 1711              		.loc 2 97 17 view .LVU474
 1712              	.LBB739:
  98:tusenskona/src/tusenskona.h ****     {
  99:tusenskona/src/tusenskona.h ****         ProcessAnalogControls();
 1713              		.loc 2 99 9 view .LVU475
 1714              	.LBE739:
ARM GAS  /var/folders/z2/7_lhr9dn53s9tj4s0rwtyswm0000gn/T//ccOZi2Cx.s 			page 54


 1715              	.LBE738:
 128:MPR121.cpp    ****        hw.ProcessAllControls();
 1716              		.loc 14 128 23 is_stmt 0 view .LVU476
 1717 0000 38B5     		push	{r3, r4, r5, lr}
 1718              		.cfi_def_cfa_offset 16
 1719              		.cfi_offset 3, -16
 1720              		.cfi_offset 4, -12
 1721              		.cfi_offset 5, -8
 1722              		.cfi_offset 14, -4
 1723              	.LBB742:
 1724              	.LBB740:
 1725              		.loc 2 99 30 view .LVU477
 1726 0002 4948     		ldr	r0, .L101+8
 1727              	.LBE740:
 1728              	.LBE742:
 1729              	.LBB743:
 1730              	.LBB744:
  33:./virveldsp/src/delay.h ****         }
 1731              		.loc 15 33 25 view .LVU478
 1732 0004 4EF6C854 		movw	r4, #60872
 1733              	.LBE744:
 1734              	.LBE743:
 130:MPR121.cpp    ****        float ctrl0 = hw.GetKnobValue((daisy::Tusenskona::Knob)0);
 131:MPR121.cpp    ****        float ctrl1 = hw.GetKnobValue((daisy::Tusenskona::Knob)1);
 132:MPR121.cpp    ****        float ctrl2 = hw.GetKnobValue((daisy::Tusenskona::Knob)2);
 133:MPR121.cpp    ****        float ctrl3 = hw.GetKnobValue((daisy::Tusenskona::Knob)3);
 134:MPR121.cpp    **** 
 135:MPR121.cpp    ****        float cc = ctrl0 + 0.1;
 136:MPR121.cpp    **** 
 137:MPR121.cpp    ****        aps[0].setDelayTime(19 * cc);
 138:MPR121.cpp    ****        aps[1].setDelayTime(11 * cc);
 139:MPR121.cpp    ****        aps[2].setDelayTime(33 * cc);
 140:MPR121.cpp    ****        aps[3].setDelayTime(41 * cc);
 141:MPR121.cpp    ****        
 142:MPR121.cpp    ****        ds[0].setDelayTime(10 + 1323 * cc);
 143:MPR121.cpp    ****        ds[1].setDelayTime(10 + 1779 * cc);
 144:MPR121.cpp    ****        ds[2].setDelayTime(10 + 3397 * cc);
 145:MPR121.cpp    ****        ds[3].setDelayTime(10 + 2391 * cc);
 146:MPR121.cpp    **** 
 147:MPR121.cpp    ****        decay = ctrl1;
 1735              		.loc 14 147 14 view .LVU479
 1736 0008 484D     		ldr	r5, .L101+12
 128:MPR121.cpp    ****        hw.ProcessAllControls();
 1737              		.loc 14 128 23 view .LVU480
 1738 000a 2DED048B 		vpush.64	{d8, d9}
 1739              		.cfi_def_cfa_offset 32
 1740              		.cfi_offset 80, -32
 1741              		.cfi_offset 81, -28
 1742              		.cfi_offset 82, -24
 1743              		.cfi_offset 83, -20
 1744              	.LBB747:
 1745              	.LBB741:
 1746              		.loc 2 99 30 view .LVU481
 1747 000e FFF7FEFF 		bl	_ZN5daisy10Tusenskona21ProcessAnalogControlsEv
 1748              	.LVL89:
 100:tusenskona/src/tusenskona.h ****         ProcessDigitalControls();
 1749              		.loc 2 100 9 is_stmt 1 view .LVU482
ARM GAS  /var/folders/z2/7_lhr9dn53s9tj4s0rwtyswm0000gn/T//ccOZi2Cx.s 			page 55


 1750              		.loc 2 100 31 is_stmt 0 view .LVU483
 1751 0012 4548     		ldr	r0, .L101+8
 1752 0014 FFF7FEFF 		bl	_ZN5daisy10Tusenskona22ProcessDigitalControlsEv
 1753              	.LVL90:
 1754              		.loc 2 100 31 view .LVU484
 1755              	.LBE741:
 1756              	.LBE747:
 130:MPR121.cpp    ****        float ctrl0 = hw.GetKnobValue((daisy::Tusenskona::Knob)0);
 1757              		.loc 14 130 8 is_stmt 1 view .LVU485
 130:MPR121.cpp    ****        float ctrl0 = hw.GetKnobValue((daisy::Tusenskona::Knob)0);
 1758              		.loc 14 130 37 is_stmt 0 view .LVU486
 1759 0018 0021     		movs	r1, #0
 1760 001a 4348     		ldr	r0, .L101+8
 1761 001c FFF7FEFF 		bl	_ZN5daisy10Tusenskona12GetKnobValueENS0_4KnobE
 1762              	.LVL91:
 131:MPR121.cpp    ****        float ctrl2 = hw.GetKnobValue((daisy::Tusenskona::Knob)2);
 1763              		.loc 14 131 37 view .LVU487
 1764 0020 0121     		movs	r1, #1
 130:MPR121.cpp    ****        float ctrl1 = hw.GetKnobValue((daisy::Tusenskona::Knob)1);
 1765              		.loc 14 130 37 view .LVU488
 1766 0022 B0EE408A 		vmov.f32	s16, s0
 1767              	.LVL92:
 131:MPR121.cpp    ****        float ctrl2 = hw.GetKnobValue((daisy::Tusenskona::Knob)2);
 1768              		.loc 14 131 8 is_stmt 1 view .LVU489
 131:MPR121.cpp    ****        float ctrl2 = hw.GetKnobValue((daisy::Tusenskona::Knob)2);
 1769              		.loc 14 131 37 is_stmt 0 view .LVU490
 1770 0026 4048     		ldr	r0, .L101+8
 1771 0028 FFF7FEFF 		bl	_ZN5daisy10Tusenskona12GetKnobValueENS0_4KnobE
 1772              	.LVL93:
 132:MPR121.cpp    ****        float ctrl3 = hw.GetKnobValue((daisy::Tusenskona::Knob)3);
 1773              		.loc 14 132 37 view .LVU491
 1774 002c 0221     		movs	r1, #2
 1775 002e 3E48     		ldr	r0, .L101+8
 131:MPR121.cpp    ****        float ctrl2 = hw.GetKnobValue((daisy::Tusenskona::Knob)2);
 1776              		.loc 14 131 37 view .LVU492
 1777 0030 B0EE409A 		vmov.f32	s18, s0
 1778              	.LVL94:
 132:MPR121.cpp    ****        float ctrl3 = hw.GetKnobValue((daisy::Tusenskona::Knob)3);
 1779              		.loc 14 132 8 is_stmt 1 view .LVU493
 132:MPR121.cpp    ****        float ctrl3 = hw.GetKnobValue((daisy::Tusenskona::Knob)3);
 1780              		.loc 14 132 37 is_stmt 0 view .LVU494
 1781 0034 FFF7FEFF 		bl	_ZN5daisy10Tusenskona12GetKnobValueENS0_4KnobE
 1782              	.LVL95:
 133:MPR121.cpp    **** 
 1783              		.loc 14 133 37 view .LVU495
 1784 0038 0321     		movs	r1, #3
 1785 003a 3B48     		ldr	r0, .L101+8
 132:MPR121.cpp    ****        float ctrl3 = hw.GetKnobValue((daisy::Tusenskona::Knob)3);
 1786              		.loc 14 132 37 view .LVU496
 1787 003c F0EE408A 		vmov.f32	s17, s0
 1788              	.LVL96:
 133:MPR121.cpp    **** 
 1789              		.loc 14 133 8 is_stmt 1 view .LVU497
 133:MPR121.cpp    **** 
 1790              		.loc 14 133 37 is_stmt 0 view .LVU498
 1791 0040 FFF7FEFF 		bl	_ZN5daisy10Tusenskona12GetKnobValueENS0_4KnobE
 1792              	.LVL97:
ARM GAS  /var/folders/z2/7_lhr9dn53s9tj4s0rwtyswm0000gn/T//ccOZi2Cx.s 			page 56


 135:MPR121.cpp    **** 
 1793              		.loc 14 135 8 is_stmt 1 view .LVU499
 135:MPR121.cpp    **** 
 1794              		.loc 14 135 19 is_stmt 0 view .LVU500
 1795 0044 B7EEC87A 		vcvt.f64.f32	d7, s16
 142:MPR121.cpp    ****        ds[1].setDelayTime(10 + 1779 * cc);
 1796              		.loc 14 142 26 view .LVU501
 1797 0048 F2EE046A 		vmov.f32	s13, #1.0e+1
 148:MPR121.cpp    **** 
 149:MPR121.cpp    ****        lps[0].setSmoothingFactor(ctrl2);
 150:MPR121.cpp    ****        lps[1].setSmoothingFactor(ctrl2);
 151:MPR121.cpp    ****        lps[2].setSmoothingFactor(ctrl2);
 152:MPR121.cpp    ****        lps[3].setSmoothingFactor(ctrl2);
 153:MPR121.cpp    **** 
 154:MPR121.cpp    **** 
 155:MPR121.cpp    ****        sine.SetFreq(ctrl3 * 1000);
 1798              		.loc 14 155 20 view .LVU502
 1799 004c 9FED384A 		vldr.32	s8, .L101+16
 142:MPR121.cpp    ****        ds[1].setDelayTime(10 + 1779 * cc);
 1800              		.loc 14 142 26 view .LVU503
 1801 0050 DFED384A 		vldr.32	s9, .L101+20
 1802              	.LBB748:
 1803              	.LBB749:
  33:./virveldsp/src/delay.h ****         }
 1804              		.loc 15 33 25 view .LVU504
 1805 0054 43F66C30 		movw	r0, #15212
 1806              	.LBE749:
 1807              	.LBE748:
 1808              		.loc 14 155 20 view .LVU505
 1809 0058 20EE040A 		vmul.f32	s0, s0, s8
 1810              	.LVL98:
 143:MPR121.cpp    ****        ds[2].setDelayTime(10 + 3397 * cc);
 1811              		.loc 14 143 26 view .LVU506
 1812 005c DFED363A 		vldr.32	s7, .L101+24
 142:MPR121.cpp    ****        ds[1].setDelayTime(10 + 1779 * cc);
 1813              		.loc 14 142 26 view .LVU507
 1814 0060 B0EE664A 		vmov.f32	s8, s13
 144:MPR121.cpp    ****        ds[3].setDelayTime(10 + 2391 * cc);
 1815              		.loc 14 144 26 view .LVU508
 1816 0064 DFED352A 		vldr.32	s5, .L101+28
 1817              	.LBB753:
 1818              	.LBB750:
  33:./virveldsp/src/delay.h ****         }
 1819              		.loc 15 33 25 view .LVU509
 1820 0068 354A     		ldr	r2, .L101+32
 1821              	.LBE750:
 1822              	.LBE753:
 1823              	.LBB754:
 1824              	.LBB755:
 1825 006a 47F2E061 		movw	r1, #30432
 1826              	.LBE755:
 1827              	.LBE754:
 145:MPR121.cpp    **** 
 1828              		.loc 14 145 26 view .LVU510
 1829 006e 9FED352A 		vldr.32	s4, .L101+36
 1830              	.LBB758:
 1831              	.LBB751:
ARM GAS  /var/folders/z2/7_lhr9dn53s9tj4s0rwtyswm0000gn/T//ccOZi2Cx.s 			page 57


  33:./virveldsp/src/delay.h ****         }
 1832              		.loc 15 33 25 view .LVU511
 1833 0072 1044     		add	r0, r0, r2
 1834              	.LBE751:
 1835              	.LBE758:
 1836              	.LBB759:
 1837              	.LBB756:
 1838 0074 1144     		add	r1, r1, r2
 1839              	.LBE756:
 1840              	.LBE759:
 1841              	.LBB760:
 1842              	.LBB745:
 1843 0076 1444     		add	r4, r4, r2
 1844              	.LBE745:
 1845              	.LBE760:
 1846              	.LBB761:
 1847              	.LBB762:
 1848 0078 02F53042 		add	r2, r2, #45056
 1849              	.LBE762:
 1850              	.LBE761:
 1851              	.LBB764:
 1852              	.LBB765:
  43:./virveldsp/src/comb.h **** }
 1853              		.loc 17 43 17 view .LVU512
 1854 007c 324B     		ldr	r3, .L101+40
 1855              	.LBE765:
 1856              	.LBE764:
 140:MPR121.cpp    ****        
 1857              		.loc 14 140 27 view .LVU513
 1858 007e 9FED333A 		vldr.32	s6, .L101+44
 139:MPR121.cpp    ****        aps[3].setDelayTime(41 * cc);
 1859              		.loc 14 139 27 view .LVU514
 1860 0082 9FED336A 		vldr.32	s12, .L101+48
 147:MPR121.cpp    **** 
 1861              		.loc 14 147 14 view .LVU515
 1862 0086 85ED009A 		vstr.32	s18, [r5]
 135:MPR121.cpp    **** 
 1863              		.loc 14 135 25 view .LVU516
 1864 008a 9FED255B 		vldr.64	d5, .L101
 1865 008e 37EE057B 		vadd.f64	d7, d7, d5
 137:MPR121.cpp    ****        aps[1].setDelayTime(11 * cc);
 1866              		.loc 14 137 27 view .LVU517
 1867 0092 B3EE035A 		vmov.f32	s10, #1.9e+1
 138:MPR121.cpp    ****        aps[2].setDelayTime(33 * cc);
 1868              		.loc 14 138 27 view .LVU518
 1869 0096 F2EE065A 		vmov.f32	s11, #1.1e+1
 135:MPR121.cpp    **** 
 1870              		.loc 14 135 14 view .LVU519
 1871 009a B7EEC77B 		vcvt.f32.f64	s14, d7
 1872              	.LVL99:
 137:MPR121.cpp    ****        aps[1].setDelayTime(11 * cc);
 1873              		.loc 14 137 8 is_stmt 1 view .LVU520
 1874              	.LBB768:
 1875              	.LBI764:
  42:./virveldsp/src/comb.h ****     m_delayTime = delayTime;
 1876              		.loc 17 42 13 view .LVU521
 1877              	.LBE768:
ARM GAS  /var/folders/z2/7_lhr9dn53s9tj4s0rwtyswm0000gn/T//ccOZi2Cx.s 			page 58


 142:MPR121.cpp    ****        ds[1].setDelayTime(10 + 1779 * cc);
 1878              		.loc 14 142 26 is_stmt 0 view .LVU522
 1879 009e A7EE244A 		vfma.f32	s8, s14, s9
 143:MPR121.cpp    ****        ds[2].setDelayTime(10 + 3397 * cc);
 1880              		.loc 14 143 26 view .LVU523
 1881 00a2 F0EE664A 		vmov.f32	s9, s13
 137:MPR121.cpp    ****        aps[1].setDelayTime(11 * cc);
 1882              		.loc 14 137 27 view .LVU524
 1883 00a6 27EE055A 		vmul.f32	s10, s14, s10
 1884              	.LVL100:
 138:MPR121.cpp    ****        aps[2].setDelayTime(33 * cc);
 1885              		.loc 14 138 27 view .LVU525
 1886 00aa 67EE255A 		vmul.f32	s11, s14, s11
 143:MPR121.cpp    ****        ds[2].setDelayTime(10 + 3397 * cc);
 1887              		.loc 14 143 26 view .LVU526
 1888 00ae E7EE234A 		vfma.f32	s9, s14, s7
 145:MPR121.cpp    **** 
 1889              		.loc 14 145 26 view .LVU527
 1890 00b2 F0EE663A 		vmov.f32	s7, s13
 144:MPR121.cpp    ****        ds[3].setDelayTime(10 + 2391 * cc);
 1891              		.loc 14 144 26 view .LVU528
 1892 00b6 E7EE226A 		vfma.f32	s13, s14, s5
 1893              	.LBB769:
 1894              	.LBB752:
  33:./virveldsp/src/delay.h ****         }
 1895              		.loc 15 33 25 view .LVU529
 1896 00ba 80ED004A 		vstr.32	s8, [r0]
 1897              	.LBE752:
 1898              	.LBE769:
 139:MPR121.cpp    ****        aps[3].setDelayTime(41 * cc);
 1899              		.loc 14 139 27 view .LVU530
 1900 00be 27EE066A 		vmul.f32	s12, s14, s12
 145:MPR121.cpp    **** 
 1901              		.loc 14 145 26 view .LVU531
 1902 00c2 E7EE023A 		vfma.f32	s7, s14, s4
 140:MPR121.cpp    ****        
 1903              		.loc 14 140 27 view .LVU532
 1904 00c6 27EE037A 		vmul.f32	s14, s14, s6
 1905              	.LVL101:
 1906              	.LBB770:
 1907              	.LBB757:
  33:./virveldsp/src/delay.h ****         }
 1908              		.loc 15 33 25 view .LVU533
 1909 00ca C1ED004A 		vstr.32	s9, [r1]
 1910              	.LBE757:
 1911              	.LBE770:
 1912              	.LBB771:
 1913              	.LBB772:
  43:./virveldsp/src/comb.h **** }
 1914              		.loc 17 43 17 view .LVU534
 1915 00ce 03F51861 		add	r1, r3, #2432
 1916              	.LBE772:
 1917              	.LBE771:
 1918              	.LBB774:
 1919              	.LBB763:
  33:./virveldsp/src/delay.h ****         }
 1920              		.loc 15 33 25 view .LVU535
ARM GAS  /var/folders/z2/7_lhr9dn53s9tj4s0rwtyswm0000gn/T//ccOZi2Cx.s 			page 59


 1921 00d2 C2ED956A 		vstr.32	s13, [r2, #596]
 1922              	.LBE763:
 1923              	.LBE774:
 1924              	.LBB775:
 1925              	.LBB776:
  24:./virveldsp/src/lowpass.h ****             }
 1926              		.loc 16 24 23 view .LVU536
 1927 00d6 1F4A     		ldr	r2, .L101+52
 1928              	.LBE776:
 1929              	.LBE775:
 1930              	.LBB779:
 1931              	.LBB746:
  33:./virveldsp/src/delay.h ****         }
 1932              		.loc 15 33 25 view .LVU537
 1933 00d8 C4ED003A 		vstr.32	s7, [r4]
 1934              	.LBE746:
 1935              	.LBE779:
 1936              	.LBB780:
 1937              	.LBB777:
  24:./virveldsp/src/lowpass.h ****             }
 1938              		.loc 16 24 23 view .LVU538
 1939 00dc C2ED018A 		vstr.32	s17, [r2, #4]
 1940              	.LBE777:
 1941              	.LBE780:
 1942              	.LBB781:
 1943              	.LBB782:
 1944 00e0 C2ED048A 		vstr.32	s17, [r2, #16]
 1945              	.LBE782:
 1946              	.LBE781:
 1947              	.LBB784:
 1948              	.LBB785:
 1949 00e4 C2ED078A 		vstr.32	s17, [r2, #28]
 1950              	.LBE785:
 1951              	.LBE784:
 1952              	.LBB787:
 1953              	.LBB788:
 1954 00e8 C2ED0A8A 		vstr.32	s17, [r2, #40]
 1955              	.LBE788:
 1956              	.LBE787:
 1957              	.LBB790:
 1958              	.LBB766:
  43:./virveldsp/src/comb.h **** }
 1959              		.loc 17 43 17 view .LVU539
 1960 00ec 03F59762 		add	r2, r3, #1208
 1961              	.LBE766:
 1962              	.LBE790:
 1963              	.LBB791:
 1964              	.LBB792:
  25:./DaisySP//Source/Synthesis/oscillator.h ****     /** Choices for output waveforms, POLYBLEP are appropriately labeled. Others are naive forms.
  26:./DaisySP//Source/Synthesis/oscillator.h ****     */
  27:./DaisySP//Source/Synthesis/oscillator.h ****     enum
  28:./DaisySP//Source/Synthesis/oscillator.h ****     {
  29:./DaisySP//Source/Synthesis/oscillator.h ****         WAVE_SIN,
  30:./DaisySP//Source/Synthesis/oscillator.h ****         WAVE_TRI,
  31:./DaisySP//Source/Synthesis/oscillator.h ****         WAVE_SAW,
  32:./DaisySP//Source/Synthesis/oscillator.h ****         WAVE_RAMP,
  33:./DaisySP//Source/Synthesis/oscillator.h ****         WAVE_SQUARE,
ARM GAS  /var/folders/z2/7_lhr9dn53s9tj4s0rwtyswm0000gn/T//ccOZi2Cx.s 			page 60


  34:./DaisySP//Source/Synthesis/oscillator.h ****         WAVE_POLYBLEP_TRI,
  35:./DaisySP//Source/Synthesis/oscillator.h ****         WAVE_POLYBLEP_SAW,
  36:./DaisySP//Source/Synthesis/oscillator.h ****         WAVE_POLYBLEP_SQUARE,
  37:./DaisySP//Source/Synthesis/oscillator.h ****         WAVE_LAST,
  38:./DaisySP//Source/Synthesis/oscillator.h ****     };
  39:./DaisySP//Source/Synthesis/oscillator.h **** 
  40:./DaisySP//Source/Synthesis/oscillator.h **** 
  41:./DaisySP//Source/Synthesis/oscillator.h ****     /** Initializes the Oscillator
  42:./DaisySP//Source/Synthesis/oscillator.h **** 
  43:./DaisySP//Source/Synthesis/oscillator.h ****         \param sample_rate - sample rate of the audio engine being run, and the frequency that the 
  44:./DaisySP//Source/Synthesis/oscillator.h **** 
  45:./DaisySP//Source/Synthesis/oscillator.h ****         Defaults:
  46:./DaisySP//Source/Synthesis/oscillator.h ****         - freq_ = 100 Hz
  47:./DaisySP//Source/Synthesis/oscillator.h ****         - amp_ = 0.5
  48:./DaisySP//Source/Synthesis/oscillator.h ****         - waveform_ = sine wave.
  49:./DaisySP//Source/Synthesis/oscillator.h ****     */
  50:./DaisySP//Source/Synthesis/oscillator.h ****     void Init(float sample_rate)
  51:./DaisySP//Source/Synthesis/oscillator.h ****     {
  52:./DaisySP//Source/Synthesis/oscillator.h ****         sr_        = sample_rate;
  53:./DaisySP//Source/Synthesis/oscillator.h ****         sr_recip_  = 1.0f / sample_rate;
  54:./DaisySP//Source/Synthesis/oscillator.h ****         freq_      = 100.0f;
  55:./DaisySP//Source/Synthesis/oscillator.h ****         amp_       = 0.5f;
  56:./DaisySP//Source/Synthesis/oscillator.h ****         pw_        = 0.5f;
  57:./DaisySP//Source/Synthesis/oscillator.h ****         phase_     = 0.0f;
  58:./DaisySP//Source/Synthesis/oscillator.h ****         phase_inc_ = CalcPhaseInc(freq_);
  59:./DaisySP//Source/Synthesis/oscillator.h ****         waveform_  = WAVE_SIN;
  60:./DaisySP//Source/Synthesis/oscillator.h ****         eoc_       = true;
  61:./DaisySP//Source/Synthesis/oscillator.h ****         eor_       = true;
  62:./DaisySP//Source/Synthesis/oscillator.h ****     }
  63:./DaisySP//Source/Synthesis/oscillator.h **** 
  64:./DaisySP//Source/Synthesis/oscillator.h **** 
  65:./DaisySP//Source/Synthesis/oscillator.h ****     /** Changes the frequency of the Oscillator, and recalculates phase increment.
  66:./DaisySP//Source/Synthesis/oscillator.h ****     */
  67:./DaisySP//Source/Synthesis/oscillator.h ****     inline void SetFreq(const float f)
  68:./DaisySP//Source/Synthesis/oscillator.h ****     {
  69:./DaisySP//Source/Synthesis/oscillator.h ****         freq_      = f;
 1965              		.loc 13 69 20 view .LVU540
 1966 00f0 194C     		ldr	r4, .L101+56
 1967              	.LBE792:
 1968              	.LBE791:
 1969              	.LBB795:
 1970              	.LBB767:
  43:./virveldsp/src/comb.h **** }
 1971              		.loc 17 43 17 view .LVU541
 1972 00f2 82ED005A 		vstr.32	s10, [r2]
 1973              	.LVL102:
  43:./virveldsp/src/comb.h **** }
 1974              		.loc 17 43 17 view .LVU542
 1975              	.LBE767:
 1976              	.LBE795:
 138:MPR121.cpp    ****        aps[2].setDelayTime(33 * cc);
 1977              		.loc 14 138 8 is_stmt 1 view .LVU543
 1978              	.LBB796:
 1979              	.LBI771:
  42:./virveldsp/src/comb.h ****     m_delayTime = delayTime;
 1980              		.loc 17 42 13 view .LVU544
 1981              	.LBE796:
ARM GAS  /var/folders/z2/7_lhr9dn53s9tj4s0rwtyswm0000gn/T//ccOZi2Cx.s 			page 61


 1982              	.LBB797:
 1983              	.LBB798:
  43:./virveldsp/src/comb.h **** }
 1984              		.loc 17 43 17 is_stmt 0 view .LVU545
 1985 00f6 03F64862 		addw	r2, r3, #3656
 1986              	.LBE798:
 1987              	.LBE797:
 1988              	.LBB800:
 1989              	.LBB801:
 1990 00fa 03F58053 		add	r3, r3, #4096
 1991              	.LBE801:
 1992              	.LBE800:
 1993              	.LBB803:
 1994              	.LBB793:
  70:./DaisySP//Source/Synthesis/oscillator.h ****         phase_inc_ = CalcPhaseInc(f);
 1995              		.loc 13 70 34 view .LVU546
 1996 00fe 2046     		mov	r0, r4
 1997              	.LBE793:
 1998              	.LBE803:
 1999              	.LBB804:
 2000              	.LBB773:
  43:./virveldsp/src/comb.h **** }
 2001              		.loc 17 43 17 view .LVU547
 2002 0100 C1ED005A 		vstr.32	s11, [r1]
 2003              	.LVL103:
  43:./virveldsp/src/comb.h **** }
 2004              		.loc 17 43 17 view .LVU548
 2005              	.LBE773:
 2006              	.LBE804:
 139:MPR121.cpp    ****        aps[3].setDelayTime(41 * cc);
 2007              		.loc 14 139 8 is_stmt 1 view .LVU549
 2008              	.LBB805:
 2009              	.LBI797:
  42:./virveldsp/src/comb.h ****     m_delayTime = delayTime;
 2010              		.loc 17 42 13 view .LVU550
 2011              	.LBB799:
  43:./virveldsp/src/comb.h **** }
 2012              		.loc 17 43 17 is_stmt 0 view .LVU551
 2013 0104 82ED006A 		vstr.32	s12, [r2]
 2014              	.LVL104:
  43:./virveldsp/src/comb.h **** }
 2015              		.loc 17 43 17 view .LVU552
 2016              	.LBE799:
 2017              	.LBE805:
 140:MPR121.cpp    ****        
 2018              		.loc 14 140 8 is_stmt 1 view .LVU553
 2019              	.LBB806:
 2020              	.LBI800:
  42:./virveldsp/src/comb.h ****     m_delayTime = delayTime;
 2021              		.loc 17 42 13 view .LVU554
 2022              	.LBB802:
  43:./virveldsp/src/comb.h **** }
 2023              		.loc 17 43 17 is_stmt 0 view .LVU555
 2024 0108 83EDC47A 		vstr.32	s14, [r3, #784]
 2025              	.LVL105:
  43:./virveldsp/src/comb.h **** }
 2026              		.loc 17 43 17 view .LVU556
ARM GAS  /var/folders/z2/7_lhr9dn53s9tj4s0rwtyswm0000gn/T//ccOZi2Cx.s 			page 62


 2027              	.LBE802:
 2028              	.LBE806:
 142:MPR121.cpp    ****        ds[1].setDelayTime(10 + 1779 * cc);
 2029              		.loc 14 142 8 is_stmt 1 view .LVU557
 2030              	.LBB807:
 2031              	.LBI748:
  32:./virveldsp/src/delay.h ****             m_delayTime = delayTime;
 2032              		.loc 15 32 21 view .LVU558
  32:./virveldsp/src/delay.h ****             m_delayTime = delayTime;
 2033              		.loc 15 32 21 is_stmt 0 view .LVU559
 2034              	.LBE807:
 143:MPR121.cpp    ****        ds[2].setDelayTime(10 + 3397 * cc);
 2035              		.loc 14 143 8 is_stmt 1 view .LVU560
 2036              	.LBB808:
 2037              	.LBI754:
  32:./virveldsp/src/delay.h ****             m_delayTime = delayTime;
 2038              		.loc 15 32 21 view .LVU561
  32:./virveldsp/src/delay.h ****             m_delayTime = delayTime;
 2039              		.loc 15 32 21 is_stmt 0 view .LVU562
 2040              	.LBE808:
 144:MPR121.cpp    ****        ds[3].setDelayTime(10 + 2391 * cc);
 2041              		.loc 14 144 8 is_stmt 1 view .LVU563
 2042              	.LBB809:
 2043              	.LBI761:
  32:./virveldsp/src/delay.h ****             m_delayTime = delayTime;
 2044              		.loc 15 32 21 view .LVU564
  32:./virveldsp/src/delay.h ****             m_delayTime = delayTime;
 2045              		.loc 15 32 21 is_stmt 0 view .LVU565
 2046              	.LBE809:
 145:MPR121.cpp    **** 
 2047              		.loc 14 145 8 is_stmt 1 view .LVU566
 2048              	.LBB810:
 2049              	.LBI743:
  32:./virveldsp/src/delay.h ****             m_delayTime = delayTime;
 2050              		.loc 15 32 21 view .LVU567
  32:./virveldsp/src/delay.h ****             m_delayTime = delayTime;
 2051              		.loc 15 32 21 is_stmt 0 view .LVU568
 2052              	.LBE810:
 147:MPR121.cpp    **** 
 2053              		.loc 14 147 8 is_stmt 1 view .LVU569
 149:MPR121.cpp    ****        lps[1].setSmoothingFactor(ctrl2);
 2054              		.loc 14 149 8 view .LVU570
 2055              	.LBB811:
 2056              	.LBI775:
  23:./virveldsp/src/lowpass.h ****                 m_fac = fac;
 2057              		.loc 16 23 18 view .LVU571
 2058              	.LBB778:
  24:./virveldsp/src/lowpass.h ****             }
 2059              		.loc 16 24 17 view .LVU572
  24:./virveldsp/src/lowpass.h ****             }
 2060              		.loc 16 24 17 is_stmt 0 view .LVU573
 2061              	.LBE778:
 2062              	.LBE811:
 150:MPR121.cpp    ****        lps[2].setSmoothingFactor(ctrl2);
 2063              		.loc 14 150 8 is_stmt 1 view .LVU574
 2064              	.LBB812:
 2065              	.LBI781:
ARM GAS  /var/folders/z2/7_lhr9dn53s9tj4s0rwtyswm0000gn/T//ccOZi2Cx.s 			page 63


  23:./virveldsp/src/lowpass.h ****                 m_fac = fac;
 2066              		.loc 16 23 18 view .LVU575
 2067              	.LBB783:
  24:./virveldsp/src/lowpass.h ****             }
 2068              		.loc 16 24 17 view .LVU576
  24:./virveldsp/src/lowpass.h ****             }
 2069              		.loc 16 24 17 is_stmt 0 view .LVU577
 2070              	.LBE783:
 2071              	.LBE812:
 151:MPR121.cpp    ****        lps[3].setSmoothingFactor(ctrl2);
 2072              		.loc 14 151 8 is_stmt 1 view .LVU578
 2073              	.LBB813:
 2074              	.LBI784:
  23:./virveldsp/src/lowpass.h ****                 m_fac = fac;
 2075              		.loc 16 23 18 view .LVU579
 2076              	.LBB786:
  24:./virveldsp/src/lowpass.h ****             }
 2077              		.loc 16 24 17 view .LVU580
  24:./virveldsp/src/lowpass.h ****             }
 2078              		.loc 16 24 17 is_stmt 0 view .LVU581
 2079              	.LBE786:
 2080              	.LBE813:
 152:MPR121.cpp    **** 
 2081              		.loc 14 152 8 is_stmt 1 view .LVU582
 2082              	.LBB814:
 2083              	.LBI787:
  23:./virveldsp/src/lowpass.h ****                 m_fac = fac;
 2084              		.loc 16 23 18 view .LVU583
 2085              	.LBB789:
  24:./virveldsp/src/lowpass.h ****             }
 2086              		.loc 16 24 17 view .LVU584
  24:./virveldsp/src/lowpass.h ****             }
 2087              		.loc 16 24 17 is_stmt 0 view .LVU585
 2088              	.LBE789:
 2089              	.LBE814:
 2090              		.loc 14 155 8 is_stmt 1 view .LVU586
 2091              	.LBB815:
 2092              	.LBI791:
  67:./DaisySP//Source/Synthesis/oscillator.h ****     {
 2093              		.loc 13 67 17 view .LVU587
 2094              	.LBB794:
  69:./DaisySP//Source/Synthesis/oscillator.h ****         phase_inc_ = CalcPhaseInc(f);
 2095              		.loc 13 69 9 view .LVU588
 2096              		.loc 13 70 9 view .LVU589
  69:./DaisySP//Source/Synthesis/oscillator.h ****         phase_inc_ = CalcPhaseInc(f);
 2097              		.loc 13 69 20 is_stmt 0 view .LVU590
 2098 010c 84ED020A 		vstr.32	s0, [r4, #8]
 2099              		.loc 13 70 34 view .LVU591
 2100 0110 FFF7FEFF 		bl	_ZN7daisysp10Oscillator12CalcPhaseIncEf
 2101              	.LVL106:
 2102              		.loc 13 70 20 view .LVU592
 2103 0114 84ED070A 		vstr.32	s0, [r4, #28]
 2104              	.LVL107:
 2105              		.loc 13 70 20 view .LVU593
 2106              	.LBE794:
 2107              	.LBE815:
 156:MPR121.cpp    **** 
ARM GAS  /var/folders/z2/7_lhr9dn53s9tj4s0rwtyswm0000gn/T//ccOZi2Cx.s 			page 64


 157:MPR121.cpp    **** }
 2108              		.loc 14 157 1 view .LVU594
 2109 0118 BDEC048B 		vldm	sp!, {d8-d9}
 2110              		.cfi_restore 82
 2111              		.cfi_restore 83
 2112              		.cfi_restore 80
 2113              		.cfi_restore 81
 2114              		.cfi_def_cfa_offset 16
 2115              	.LVL108:
 2116              		.loc 14 157 1 view .LVU595
 2117 011c 38BD     		pop	{r3, r4, r5, pc}
 2118              	.L102:
 2119 011e 00BF     		.align	3
 2120              	.L101:
 2121 0120 9A999999 		.word	-1717986918
 2122 0124 9999B93F 		.word	1069128089
 2123 0128 00000000 		.word	.LANCHOR8
 2124 012c 00000000 		.word	.LANCHOR5
 2125 0130 00007A44 		.word	1148846080
 2126 0134 0060A544 		.word	1151688704
 2127 0138 0060DE44 		.word	1155424256
 2128 013c 00505445 		.word	1163153408
 2129 0140 00000000 		.word	ds
 2130 0144 00701545 		.word	1159032832
 2131 0148 00000000 		.word	aps
 2132 014c 00002442 		.word	1109655552
 2133 0150 00000442 		.word	1107558400
 2134 0154 00000000 		.word	.LANCHOR1
 2135 0158 00000000 		.word	.LANCHOR0
 2136              		.cfi_endproc
 2137              	.LFE4759:
 2139              		.section	.text._ZN5daisy6Mpr121INS_18Mpr121I2CTransportEE13WriteRegisterEhh,"axG",%progbits,_ZN5da
 2140              		.align	1
 2141              		.p2align 2,,3
 2142              		.weak	_ZN5daisy6Mpr121INS_18Mpr121I2CTransportEE13WriteRegisterEhh
 2143              		.syntax unified
 2144              		.thumb
 2145              		.thumb_func
 2147              	_ZN5daisy6Mpr121INS_18Mpr121I2CTransportEE13WriteRegisterEhh:
 2148              	.LVL109:
 2149              	.LFB5202:
  92:./libDaisy//src/dev/mpr121.h **** 
  93:./libDaisy//src/dev/mpr121.h ****     struct Config
  94:./libDaisy//src/dev/mpr121.h ****     {
  95:./libDaisy//src/dev/mpr121.h ****         typename Transport::Config transport_config;
  96:./libDaisy//src/dev/mpr121.h ****         uint8_t                    touch_threshold;
  97:./libDaisy//src/dev/mpr121.h ****         uint8_t                    release_threshold;
  98:./libDaisy//src/dev/mpr121.h **** 
  99:./libDaisy//src/dev/mpr121.h ****         Config()
 100:./libDaisy//src/dev/mpr121.h ****         {
 101:./libDaisy//src/dev/mpr121.h ****             touch_threshold   = MPR121_TOUCH_THRESHOLD_DEFAULT;
 102:./libDaisy//src/dev/mpr121.h ****             release_threshold = MPR121_RELEASE_THRESHOLD_DEFAULT;
 103:./libDaisy//src/dev/mpr121.h ****         }
 104:./libDaisy//src/dev/mpr121.h ****     };
 105:./libDaisy//src/dev/mpr121.h **** 
 106:./libDaisy//src/dev/mpr121.h ****     enum Result
 107:./libDaisy//src/dev/mpr121.h ****     {
ARM GAS  /var/folders/z2/7_lhr9dn53s9tj4s0rwtyswm0000gn/T//ccOZi2Cx.s 			page 65


 108:./libDaisy//src/dev/mpr121.h ****         OK = 0,
 109:./libDaisy//src/dev/mpr121.h ****         ERR
 110:./libDaisy//src/dev/mpr121.h ****     };
 111:./libDaisy//src/dev/mpr121.h **** 
 112:./libDaisy//src/dev/mpr121.h ****     /** Initialize the MPR121 device
 113:./libDaisy//src/dev/mpr121.h ****         \param config Configuration settings
 114:./libDaisy//src/dev/mpr121.h ****     */
 115:./libDaisy//src/dev/mpr121.h ****     Result Init(Config config)
 116:./libDaisy//src/dev/mpr121.h ****     {
 117:./libDaisy//src/dev/mpr121.h ****         config_ = config;
 118:./libDaisy//src/dev/mpr121.h **** 
 119:./libDaisy//src/dev/mpr121.h ****         SetTransportErr(transport_.Init(config_.transport_config));
 120:./libDaisy//src/dev/mpr121.h **** 
 121:./libDaisy//src/dev/mpr121.h ****         // soft reset
 122:./libDaisy//src/dev/mpr121.h ****         WriteRegister(MPR121_SOFTRESET, 0x63);
 123:./libDaisy//src/dev/mpr121.h ****         System::Delay(1);
 124:./libDaisy//src/dev/mpr121.h **** 
 125:./libDaisy//src/dev/mpr121.h ****         WriteRegister(MPR121_ECR, 0x0);
 126:./libDaisy//src/dev/mpr121.h **** 
 127:./libDaisy//src/dev/mpr121.h ****         // this doesn't work for some reason...
 128:./libDaisy//src/dev/mpr121.h ****         // uint8_t c = ReadRegister8(MPR121_CONFIG2);
 129:./libDaisy//src/dev/mpr121.h **** 
 130:./libDaisy//src/dev/mpr121.h ****         // if(c != 0x24)
 131:./libDaisy//src/dev/mpr121.h ****         //     return ERR;
 132:./libDaisy//src/dev/mpr121.h **** 
 133:./libDaisy//src/dev/mpr121.h ****         SetThresholds(config_.touch_threshold, config_.release_threshold);
 134:./libDaisy//src/dev/mpr121.h ****         WriteRegister(MPR121_MHDR, 0x01);
 135:./libDaisy//src/dev/mpr121.h ****         WriteRegister(MPR121_NHDR, 0x01);
 136:./libDaisy//src/dev/mpr121.h ****         WriteRegister(MPR121_NCLR, 0x0E);
 137:./libDaisy//src/dev/mpr121.h ****         WriteRegister(MPR121_FDLR, 0x00);
 138:./libDaisy//src/dev/mpr121.h **** 
 139:./libDaisy//src/dev/mpr121.h ****         WriteRegister(MPR121_MHDF, 0x01);
 140:./libDaisy//src/dev/mpr121.h ****         WriteRegister(MPR121_NHDF, 0x05);
 141:./libDaisy//src/dev/mpr121.h ****         WriteRegister(MPR121_NCLF, 0x01);
 142:./libDaisy//src/dev/mpr121.h ****         WriteRegister(MPR121_FDLF, 0x00);
 143:./libDaisy//src/dev/mpr121.h **** 
 144:./libDaisy//src/dev/mpr121.h ****         WriteRegister(MPR121_NHDT, 0x00);
 145:./libDaisy//src/dev/mpr121.h ****         WriteRegister(MPR121_NCLT, 0x00);
 146:./libDaisy//src/dev/mpr121.h ****         WriteRegister(MPR121_FDLT, 0x00);
 147:./libDaisy//src/dev/mpr121.h **** 
 148:./libDaisy//src/dev/mpr121.h ****         WriteRegister(MPR121_DEBOUNCE, 0);
 149:./libDaisy//src/dev/mpr121.h ****         WriteRegister(MPR121_CONFIG1, 0x10); // default, 16uA charge current
 150:./libDaisy//src/dev/mpr121.h ****         WriteRegister(MPR121_CONFIG2, 0x20); // 0.5uS encoding, 1ms period
 151:./libDaisy//src/dev/mpr121.h **** 
 152:./libDaisy//src/dev/mpr121.h ****         // autoconfig
 153:./libDaisy//src/dev/mpr121.h ****         // WriteRegister(MPR121_AUTOCONFIG0, 0x0B);
 154:./libDaisy//src/dev/mpr121.h **** 
 155:./libDaisy//src/dev/mpr121.h ****         // correct values for Vdd = 3.3V
 156:./libDaisy//src/dev/mpr121.h ****         // WriteRegister(MPR121_UPLIMIT, 200);     // ((Vdd - 0.7)/Vdd) * 256
 157:./libDaisy//src/dev/mpr121.h ****         // WriteRegister(MPR121_TARGETLIMIT, 180); // UPLIMIT * 0.9
 158:./libDaisy//src/dev/mpr121.h ****         // WriteRegister(MPR121_LOWLIMIT, 130);    // UPLIMIT * 0.65
 159:./libDaisy//src/dev/mpr121.h ****         // autoconfig
 160:./libDaisy//src/dev/mpr121.h **** 
 161:./libDaisy//src/dev/mpr121.h ****         // enable X electrodes and start MPR121
 162:./libDaisy//src/dev/mpr121.h ****         uint8_t ECR_SETTING
 163:./libDaisy//src/dev/mpr121.h ****             = 0x80
 164:./libDaisy//src/dev/mpr121.h ****               + 12; // 5 bits for baseline tracking & proximity disabled + X
ARM GAS  /var/folders/z2/7_lhr9dn53s9tj4s0rwtyswm0000gn/T//ccOZi2Cx.s 			page 66


 165:./libDaisy//src/dev/mpr121.h ****                     // amount of electrodes running (12)
 166:./libDaisy//src/dev/mpr121.h ****         WriteRegister(MPR121_ECR,
 167:./libDaisy//src/dev/mpr121.h ****                       ECR_SETTING); // start with above ECR setting
 168:./libDaisy//src/dev/mpr121.h **** 
 169:./libDaisy//src/dev/mpr121.h ****         return GetTransportErr();
 170:./libDaisy//src/dev/mpr121.h ****     }
 171:./libDaisy//src/dev/mpr121.h **** 
 172:./libDaisy//src/dev/mpr121.h ****     /** Set the touch and release thresholds for all 13 channels on the
 173:./libDaisy//src/dev/mpr121.h ****         device to the passed values.
 174:./libDaisy//src/dev/mpr121.h ****         \param      touch The touch threshold value from 0 to 255.
 175:./libDaisy//src/dev/mpr121.h ****         \param      release The release threshold from 0 to 255.
 176:./libDaisy//src/dev/mpr121.h ****     */
 177:./libDaisy//src/dev/mpr121.h ****     void SetThresholds(uint8_t touch, uint8_t release)
 178:./libDaisy//src/dev/mpr121.h ****     {
 179:./libDaisy//src/dev/mpr121.h ****         // set all thresholds (the same)
 180:./libDaisy//src/dev/mpr121.h ****         for(uint8_t i = 0; i < 12; i++)
 181:./libDaisy//src/dev/mpr121.h ****         {
 182:./libDaisy//src/dev/mpr121.h ****             WriteRegister(MPR121_TOUCHTH_0 + 2 * i, touch);
 183:./libDaisy//src/dev/mpr121.h ****             WriteRegister(MPR121_RELEASETH_0 + 2 * i, release);
 184:./libDaisy//src/dev/mpr121.h ****         }
 185:./libDaisy//src/dev/mpr121.h ****     }
 186:./libDaisy//src/dev/mpr121.h **** 
 187:./libDaisy//src/dev/mpr121.h **** 
 188:./libDaisy//src/dev/mpr121.h ****     /** Read the filtered data from channel t. The ADC raw data outputs
 189:./libDaisy//src/dev/mpr121.h ****         run through 3 levels of digital filtering to filter out the high
 190:./libDaisy//src/dev/mpr121.h ****         frequency and low frequency noise encountered. For detailed information on
 191:./libDaisy//src/dev/mpr121.h ****         this filtering see page 6 of the device datasheet.
 192:./libDaisy//src/dev/mpr121.h ****         \param      t the channel to read
 193:./libDaisy//src/dev/mpr121.h ****         \returns    the filtered reading as a 10 bit unsigned value
 194:./libDaisy//src/dev/mpr121.h ****     */
 195:./libDaisy//src/dev/mpr121.h ****     uint16_t FilteredData(uint8_t t)
 196:./libDaisy//src/dev/mpr121.h ****     {
 197:./libDaisy//src/dev/mpr121.h ****         if(t > 12)
 198:./libDaisy//src/dev/mpr121.h ****             return 0;
 199:./libDaisy//src/dev/mpr121.h ****         return ReadRegister16(MPR121_FILTDATA_0L + t * 2);
 200:./libDaisy//src/dev/mpr121.h ****     }
 201:./libDaisy//src/dev/mpr121.h **** 
 202:./libDaisy//src/dev/mpr121.h ****     /** Read the baseline value for the channel. The 3rd level filtered
 203:./libDaisy//src/dev/mpr121.h ****         result is internally 10bit but only high 8 bits are readable
 204:./libDaisy//src/dev/mpr121.h ****         from registers 0x1E~0x2A as the baseline value output for each channel.
 205:./libDaisy//src/dev/mpr121.h ****         \param      t the channel to read.
 206:./libDaisy//src/dev/mpr121.h ****         \returns    the baseline data that was read
 207:./libDaisy//src/dev/mpr121.h ****     */
 208:./libDaisy//src/dev/mpr121.h ****     uint16_t BaselineData(uint8_t t)
 209:./libDaisy//src/dev/mpr121.h ****     {
 210:./libDaisy//src/dev/mpr121.h ****         if(t > 12)
 211:./libDaisy//src/dev/mpr121.h ****             return 0;
 212:./libDaisy//src/dev/mpr121.h ****         uint16_t bl = ReadRegister8(MPR121_BASELINE_0 + t);
 213:./libDaisy//src/dev/mpr121.h ****         return (bl << 2);
 214:./libDaisy//src/dev/mpr121.h ****     }
 215:./libDaisy//src/dev/mpr121.h **** 
 216:./libDaisy//src/dev/mpr121.h ****     /** Read the touch status of all 13 channels as bit values in a 12 bit integer.
 217:./libDaisy//src/dev/mpr121.h ****         \returns    a 12 bit integer with each bit corresponding to the touch status
 218:./libDaisy//src/dev/mpr121.h ****         of a sensor. For example, if bit 0 is set then channel 0 of the
 219:./libDaisy//src/dev/mpr121.h ****         device is currently deemed to be touched.
 220:./libDaisy//src/dev/mpr121.h ****     */
 221:./libDaisy//src/dev/mpr121.h ****     uint16_t Touched()
ARM GAS  /var/folders/z2/7_lhr9dn53s9tj4s0rwtyswm0000gn/T//ccOZi2Cx.s 			page 67


 222:./libDaisy//src/dev/mpr121.h ****     {
 223:./libDaisy//src/dev/mpr121.h ****         uint16_t t = ReadRegister16(MPR121_TOUCHSTATUS_L);
 224:./libDaisy//src/dev/mpr121.h ****         return t & 0x0FFF;
 225:./libDaisy//src/dev/mpr121.h ****     }
 226:./libDaisy//src/dev/mpr121.h **** 
 227:./libDaisy//src/dev/mpr121.h ****     /** Read the contents of an 8 bit device register.
 228:./libDaisy//src/dev/mpr121.h ****         \param      reg the register address to read from
 229:./libDaisy//src/dev/mpr121.h ****         \returns    the 8 bit value that was read.
 230:./libDaisy//src/dev/mpr121.h ****     */
 231:./libDaisy//src/dev/mpr121.h ****     uint8_t ReadRegister8(uint8_t reg)
 232:./libDaisy//src/dev/mpr121.h ****     {
 233:./libDaisy//src/dev/mpr121.h ****         uint8_t buff;
 234:./libDaisy//src/dev/mpr121.h ****         SetTransportErr(transport_.Write(&reg, 1));
 235:./libDaisy//src/dev/mpr121.h ****         SetTransportErr(transport_.Read(&buff, 1));
 236:./libDaisy//src/dev/mpr121.h **** 
 237:./libDaisy//src/dev/mpr121.h ****         return buff;
 238:./libDaisy//src/dev/mpr121.h ****     }
 239:./libDaisy//src/dev/mpr121.h **** 
 240:./libDaisy//src/dev/mpr121.h ****     /** Read the contents of a 16 bit device register.
 241:./libDaisy//src/dev/mpr121.h ****         \param      reg the register address to read from
 242:./libDaisy//src/dev/mpr121.h ****         \returns    the 16 bit value that was read.
 243:./libDaisy//src/dev/mpr121.h ****     */
 244:./libDaisy//src/dev/mpr121.h ****     uint16_t ReadRegister16(uint8_t reg)
 245:./libDaisy//src/dev/mpr121.h ****     {
 246:./libDaisy//src/dev/mpr121.h ****         uint16_t buff;
 247:./libDaisy//src/dev/mpr121.h ****         SetTransportErr(transport_.Write(&reg, 1));
 248:./libDaisy//src/dev/mpr121.h ****         SetTransportErr(transport_.Read((uint8_t *)&buff, 2));
 249:./libDaisy//src/dev/mpr121.h **** 
 250:./libDaisy//src/dev/mpr121.h ****         return buff;
 251:./libDaisy//src/dev/mpr121.h ****     }
 252:./libDaisy//src/dev/mpr121.h **** 
 253:./libDaisy//src/dev/mpr121.h ****     /** Writes 8-bits to the specified destination register
 254:./libDaisy//src/dev/mpr121.h ****         \param  reg the register address to write to
 255:./libDaisy//src/dev/mpr121.h ****         \param  value the value to write
 256:./libDaisy//src/dev/mpr121.h ****     */
 257:./libDaisy//src/dev/mpr121.h ****     void WriteRegister(uint8_t reg, uint8_t value)
 2150              		.loc 1 257 10 is_stmt 1 view -0
 2151              		.cfi_startproc
 2152              		@ args = 0, pretend = 0, frame = 8
 2153              		@ frame_needed = 0, uses_anonymous_args = 0
 2154              		.loc 1 257 10 is_stmt 0 view .LVU597
 2155 0000 2DE9F043 		push	{r4, r5, r6, r7, r8, r9, lr}
 2156              		.cfi_def_cfa_offset 28
 2157              		.cfi_offset 4, -28
 2158              		.cfi_offset 5, -24
 2159              		.cfi_offset 6, -20
 2160              		.cfi_offset 7, -16
 2161              		.cfi_offset 8, -12
 2162              		.cfi_offset 9, -8
 2163              		.cfi_offset 14, -4
 258:./libDaisy//src/dev/mpr121.h ****     {
 259:./libDaisy//src/dev/mpr121.h ****         // MPR121 must be put in Stop Mode to write to most registers
 260:./libDaisy//src/dev/mpr121.h ****         bool stop_required = true;
 261:./libDaisy//src/dev/mpr121.h **** 
 262:./libDaisy//src/dev/mpr121.h ****         // first get the current set value of the MPR121_ECR register
 263:./libDaisy//src/dev/mpr121.h ****         uint8_t ecr_reg = MPR121_ECR;
 264:./libDaisy//src/dev/mpr121.h ****         uint8_t buff[2] = {ecr_reg, 0x00};
ARM GAS  /var/folders/z2/7_lhr9dn53s9tj4s0rwtyswm0000gn/T//ccOZi2Cx.s 			page 68


 2164              		.loc 1 264 17 view .LVU598
 2165 0004 0023     		movs	r3, #0
 257:./libDaisy//src/dev/mpr121.h ****     {
 2166              		.loc 1 257 10 view .LVU599
 2167 0006 85B0     		sub	sp, sp, #20
 2168              		.cfi_def_cfa_offset 48
 2169              	.LBB846:
 2170              	.LBB847:
  66:./libDaisy//src/dev/mpr121.h ****     }
 2171              		.loc 1 66 40 view .LVU600
 2172 0008 00F11806 		add	r6, r0, #24
 2173 000c 4FF00A08 		mov	r8, #10
 2174              	.LBE847:
 2175              	.LBE846:
 257:./libDaisy//src/dev/mpr121.h ****     {
 2176              		.loc 1 257 10 view .LVU601
 2177 0010 0446     		mov	r4, r0
 2178              		.loc 1 264 17 view .LVU602
 2179 0012 4FF05E09 		mov	r9, #94
 257:./libDaisy//src/dev/mpr121.h ****     {
 2180              		.loc 1 257 10 view .LVU603
 2181 0016 0D46     		mov	r5, r1
 2182              		.loc 1 264 17 view .LVU604
 2183 0018 8DF80D30 		strb	r3, [sp, #13]
 2184              	.LBB851:
 2185              	.LBB848:
  66:./libDaisy//src/dev/mpr121.h ****     }
 2186              		.loc 1 66 40 view .LVU605
 2187 001c CDF80080 		str	r8, [sp]
 2188 0020 0123     		movs	r3, #1
 2189 0022 90F82C10 		ldrb	r1, [r0, #44]	@ zero_extendqisi2
 2190              	.LVL110:
  66:./libDaisy//src/dev/mpr121.h ****     }
 2191              		.loc 1 66 40 view .LVU606
 2192              	.LBE848:
 2193              	.LBE851:
 257:./libDaisy//src/dev/mpr121.h ****     {
 2194              		.loc 1 257 10 view .LVU607
 2195 0026 1746     		mov	r7, r2
 2196              	.LBB852:
 2197              	.LBB849:
  66:./libDaisy//src/dev/mpr121.h ****     }
 2198              		.loc 1 66 40 view .LVU608
 2199 0028 3046     		mov	r0, r6
 2200              	.LVL111:
  66:./libDaisy//src/dev/mpr121.h ****     }
 2201              		.loc 1 66 40 view .LVU609
 2202 002a 03AA     		add	r2, sp, #12
 2203              	.LVL112:
  66:./libDaisy//src/dev/mpr121.h ****     }
 2204              		.loc 1 66 40 view .LVU610
 2205              	.LBE849:
 2206              	.LBE852:
 2207              		.loc 1 264 17 view .LVU611
 2208 002c 8DF80C90 		strb	r9, [sp, #12]
 2209              	.LVL113:
 2210              	.LBB853:
ARM GAS  /var/folders/z2/7_lhr9dn53s9tj4s0rwtyswm0000gn/T//ccOZi2Cx.s 			page 69


 2211              	.LBI846:
  63:./libDaisy//src/dev/mpr121.h ****     {
 2212              		.loc 1 63 10 is_stmt 1 view .LVU612
 2213              	.LBB850:
  65:./libDaisy//src/dev/mpr121.h ****                != i2c_.TransmitBlocking(config_.dev_addr, data, size, 10);
 2214              		.loc 1 65 9 view .LVU613
  66:./libDaisy//src/dev/mpr121.h ****     }
 2215              		.loc 1 66 40 is_stmt 0 view .LVU614
 2216 0030 FFF7FEFF 		bl	_ZN5daisy9I2CHandle16TransmitBlockingEtPhtm
 2217              	.LVL114:
  66:./libDaisy//src/dev/mpr121.h ****     }
 2218              		.loc 1 66 40 view .LVU615
 2219              	.LBE850:
 2220              	.LBE853:
 2221              	.LBB854:
 2222              	.LBI854:
 265:./libDaisy//src/dev/mpr121.h **** 
 266:./libDaisy//src/dev/mpr121.h ****         SetTransportErr(transport_.Write(buff, 1));
 267:./libDaisy//src/dev/mpr121.h **** 
 268:./libDaisy//src/dev/mpr121.h ****         uint8_t ecr_backup;
 269:./libDaisy//src/dev/mpr121.h ****         SetTransportErr(transport_.Read(&ecr_backup, 1));
 270:./libDaisy//src/dev/mpr121.h ****         if((reg == MPR121_ECR) || ((0x73 <= reg) && (reg <= 0x7A)))
 271:./libDaisy//src/dev/mpr121.h ****         {
 272:./libDaisy//src/dev/mpr121.h ****             stop_required = false;
 273:./libDaisy//src/dev/mpr121.h ****         }
 274:./libDaisy//src/dev/mpr121.h **** 
 275:./libDaisy//src/dev/mpr121.h ****         if(stop_required)
 276:./libDaisy//src/dev/mpr121.h ****         {
 277:./libDaisy//src/dev/mpr121.h ****             // clear this register to set stop mode
 278:./libDaisy//src/dev/mpr121.h ****             SetTransportErr(transport_.Write(buff, 2));
 279:./libDaisy//src/dev/mpr121.h ****         }
 280:./libDaisy//src/dev/mpr121.h **** 
 281:./libDaisy//src/dev/mpr121.h ****         buff[0] = reg;
 282:./libDaisy//src/dev/mpr121.h ****         buff[1] = value;
 283:./libDaisy//src/dev/mpr121.h ****         SetTransportErr(transport_.Write(buff, 2));
 284:./libDaisy//src/dev/mpr121.h **** 
 285:./libDaisy//src/dev/mpr121.h ****         if(stop_required)
 286:./libDaisy//src/dev/mpr121.h ****         {
 287:./libDaisy//src/dev/mpr121.h ****             // write back the previous set ECR settings
 288:./libDaisy//src/dev/mpr121.h ****             buff[0] = ecr_reg;
 289:./libDaisy//src/dev/mpr121.h ****             buff[1] = ecr_backup;
 290:./libDaisy//src/dev/mpr121.h ****             SetTransportErr(transport_.Write(buff, 2));
 291:./libDaisy//src/dev/mpr121.h ****         }
 292:./libDaisy//src/dev/mpr121.h ****     }
 293:./libDaisy//src/dev/mpr121.h **** 
 294:./libDaisy//src/dev/mpr121.h ****     /** Device register map */
 295:./libDaisy//src/dev/mpr121.h ****     enum RegMap
 296:./libDaisy//src/dev/mpr121.h ****     {
 297:./libDaisy//src/dev/mpr121.h ****         MPR121_TOUCHSTATUS_L = 0x00,
 298:./libDaisy//src/dev/mpr121.h ****         MPR121_TOUCHSTATUS_H = 0x01,
 299:./libDaisy//src/dev/mpr121.h ****         MPR121_FILTDATA_0L   = 0x04,
 300:./libDaisy//src/dev/mpr121.h ****         MPR121_FILTDATA_0H   = 0x05,
 301:./libDaisy//src/dev/mpr121.h ****         MPR121_BASELINE_0    = 0x1E,
 302:./libDaisy//src/dev/mpr121.h ****         MPR121_MHDR          = 0x2B,
 303:./libDaisy//src/dev/mpr121.h ****         MPR121_NHDR          = 0x2C,
 304:./libDaisy//src/dev/mpr121.h ****         MPR121_NCLR          = 0x2D,
 305:./libDaisy//src/dev/mpr121.h ****         MPR121_FDLR          = 0x2E,
ARM GAS  /var/folders/z2/7_lhr9dn53s9tj4s0rwtyswm0000gn/T//ccOZi2Cx.s 			page 70


 306:./libDaisy//src/dev/mpr121.h ****         MPR121_MHDF          = 0x2F,
 307:./libDaisy//src/dev/mpr121.h ****         MPR121_NHDF          = 0x30,
 308:./libDaisy//src/dev/mpr121.h ****         MPR121_NCLF          = 0x31,
 309:./libDaisy//src/dev/mpr121.h ****         MPR121_FDLF          = 0x32,
 310:./libDaisy//src/dev/mpr121.h ****         MPR121_NHDT          = 0x33,
 311:./libDaisy//src/dev/mpr121.h ****         MPR121_NCLT          = 0x34,
 312:./libDaisy//src/dev/mpr121.h ****         MPR121_FDLT          = 0x35,
 313:./libDaisy//src/dev/mpr121.h **** 
 314:./libDaisy//src/dev/mpr121.h ****         MPR121_TOUCHTH_0    = 0x41,
 315:./libDaisy//src/dev/mpr121.h ****         MPR121_RELEASETH_0  = 0x42,
 316:./libDaisy//src/dev/mpr121.h ****         MPR121_DEBOUNCE     = 0x5B,
 317:./libDaisy//src/dev/mpr121.h ****         MPR121_CONFIG1      = 0x5C,
 318:./libDaisy//src/dev/mpr121.h ****         MPR121_CONFIG2      = 0x5D,
 319:./libDaisy//src/dev/mpr121.h ****         MPR121_CHARGECURR_0 = 0x5F,
 320:./libDaisy//src/dev/mpr121.h ****         MPR121_CHARGETIME_1 = 0x6C,
 321:./libDaisy//src/dev/mpr121.h ****         MPR121_ECR          = 0x5E,
 322:./libDaisy//src/dev/mpr121.h ****         MPR121_AUTOCONFIG0  = 0x7B,
 323:./libDaisy//src/dev/mpr121.h ****         MPR121_AUTOCONFIG1  = 0x7C,
 324:./libDaisy//src/dev/mpr121.h ****         MPR121_UPLIMIT      = 0x7D,
 325:./libDaisy//src/dev/mpr121.h ****         MPR121_LOWLIMIT     = 0x7E,
 326:./libDaisy//src/dev/mpr121.h ****         MPR121_TARGETLIMIT  = 0x7F,
 327:./libDaisy//src/dev/mpr121.h **** 
 328:./libDaisy//src/dev/mpr121.h ****         MPR121_GPIODIR    = 0x76,
 329:./libDaisy//src/dev/mpr121.h ****         MPR121_GPIOEN     = 0x77,
 330:./libDaisy//src/dev/mpr121.h ****         MPR121_GPIOSET    = 0x78,
 331:./libDaisy//src/dev/mpr121.h ****         MPR121_GPIOCLR    = 0x79,
 332:./libDaisy//src/dev/mpr121.h ****         MPR121_GPIOTOGGLE = 0x7A,
 333:./libDaisy//src/dev/mpr121.h **** 
 334:./libDaisy//src/dev/mpr121.h ****         MPR121_SOFTRESET = 0x80,
 335:./libDaisy//src/dev/mpr121.h ****     };
 336:./libDaisy//src/dev/mpr121.h **** 
 337:./libDaisy//src/dev/mpr121.h ****   private:
 338:./libDaisy//src/dev/mpr121.h ****     Config    config_;
 339:./libDaisy//src/dev/mpr121.h ****     Transport transport_;
 340:./libDaisy//src/dev/mpr121.h ****     bool      transport_error_;
 341:./libDaisy//src/dev/mpr121.h **** 
 342:./libDaisy//src/dev/mpr121.h ****     /** Set the global transport_error_ bool */
 343:./libDaisy//src/dev/mpr121.h ****     void SetTransportErr(bool err) { transport_error_ |= err; }
 2223              		.loc 1 343 10 is_stmt 1 view .LVU616
 2224              	.LBE854:
 2225              	.LBB858:
 2226              	.LBB859:
  73:./libDaisy//src/dev/mpr121.h ****     }
 2227              		.loc 1 73 39 is_stmt 0 view .LVU617
 2228 0034 CDF80080 		str	r8, [sp]
 2229 0038 0DF10B02 		add	r2, sp, #11
 2230              	.LBE859:
 2231              	.LBE858:
 2232              	.LBB863:
 2233              	.LBB855:
 2234              		.loc 1 343 55 view .LVU618
 2235 003c 94F83030 		ldrb	r3, [r4, #48]	@ zero_extendqisi2
 2236              	.LBE855:
 2237              	.LBE863:
 2238              	.LBB864:
 2239              	.LBB860:
  73:./libDaisy//src/dev/mpr121.h ****     }
ARM GAS  /var/folders/z2/7_lhr9dn53s9tj4s0rwtyswm0000gn/T//ccOZi2Cx.s 			page 71


 2240              		.loc 1 73 39 view .LVU619
 2241 0040 94F82C10 		ldrb	r1, [r4, #44]	@ zero_extendqisi2
 2242              	.LBE860:
 2243              	.LBE864:
 2244              	.LBB865:
 2245              	.LBB856:
 2246              		.loc 1 343 55 view .LVU620
 2247 0044 0028     		cmp	r0, #0
 2248 0046 18BF     		it	ne
 2249 0048 43F00103 		orrne	r3, r3, #1
 2250              	.LBE856:
 2251              	.LBE865:
 2252              	.LBB866:
 2253              	.LBB861:
  73:./libDaisy//src/dev/mpr121.h ****     }
 2254              		.loc 1 73 39 view .LVU621
 2255 004c 3046     		mov	r0, r6
 2256              	.LVL115:
  73:./libDaisy//src/dev/mpr121.h ****     }
 2257              		.loc 1 73 39 view .LVU622
 2258              	.LBE861:
 2259              	.LBE866:
 2260              	.LBB867:
 2261              	.LBB857:
 2262              		.loc 1 343 55 view .LVU623
 2263 004e 84F83030 		strb	r3, [r4, #48]
 2264              	.LVL116:
 2265              		.loc 1 343 55 view .LVU624
 2266              	.LBE857:
 2267              	.LBE867:
 2268              	.LBB868:
 2269              	.LBI858:
  70:./libDaisy//src/dev/mpr121.h ****     {
 2270              		.loc 1 70 10 is_stmt 1 view .LVU625
 2271              	.LBB862:
  72:./libDaisy//src/dev/mpr121.h ****                != i2c_.ReceiveBlocking(config_.dev_addr, data, size, 10);
 2272              		.loc 1 72 9 view .LVU626
  73:./libDaisy//src/dev/mpr121.h ****     }
 2273              		.loc 1 73 39 is_stmt 0 view .LVU627
 2274 0052 0123     		movs	r3, #1
 2275 0054 FFF7FEFF 		bl	_ZN5daisy9I2CHandle15ReceiveBlockingEtPhtm
 2276              	.LVL117:
  73:./libDaisy//src/dev/mpr121.h ****     }
 2277              		.loc 1 73 39 view .LVU628
 2278              	.LBE862:
 2279              	.LBE868:
 2280              	.LBB869:
 2281              	.LBI869:
 2282              		.loc 1 343 10 is_stmt 1 view .LVU629
 2283              	.LBB870:
 2284              		.loc 1 343 55 is_stmt 0 view .LVU630
 2285 0058 94F83030 		ldrb	r3, [r4, #48]	@ zero_extendqisi2
 2286 005c 0028     		cmp	r0, #0
 2287 005e 18BF     		it	ne
 2288 0060 43F00103 		orrne	r3, r3, #1
 2289 0064 84F83030 		strb	r3, [r4, #48]
 2290              	.LVL118:
ARM GAS  /var/folders/z2/7_lhr9dn53s9tj4s0rwtyswm0000gn/T//ccOZi2Cx.s 			page 72


 2291              		.loc 1 343 55 view .LVU631
 2292              	.LBE870:
 2293              	.LBE869:
 270:./libDaisy//src/dev/mpr121.h ****         {
 2294              		.loc 1 270 50 view .LVU632
 2295 0068 A5F17303 		sub	r3, r5, #115
 270:./libDaisy//src/dev/mpr121.h ****         {
 2296              		.loc 1 270 9 view .LVU633
 2297 006c 072B     		cmp	r3, #7
 2298 006e 01D9     		bls	.L104
 2299 0070 4D45     		cmp	r5, r9
 2300 0072 17D1     		bne	.L108
 2301              	.L104:
 2302              	.LVL119:
 2303              	.LBB871:
 2304              	.LBB872:
  66:./libDaisy//src/dev/mpr121.h ****     }
 2305              		.loc 1 66 40 view .LVU634
 2306 0074 0A23     		movs	r3, #10
 2307 0076 03AA     		add	r2, sp, #12
 2308 0078 3046     		mov	r0, r6
 2309              	.LBE872:
 2310              	.LBE871:
 281:./libDaisy//src/dev/mpr121.h ****         buff[1] = value;
 2311              		.loc 1 281 17 view .LVU635
 2312 007a 8DF80C50 		strb	r5, [sp, #12]
 2313              	.LBB881:
 2314              	.LBB873:
  66:./libDaisy//src/dev/mpr121.h ****     }
 2315              		.loc 1 66 40 view .LVU636
 2316 007e 0093     		str	r3, [sp]
 2317 0080 0223     		movs	r3, #2
 2318              	.LBE873:
 2319              	.LBE881:
 282:./libDaisy//src/dev/mpr121.h ****         SetTransportErr(transport_.Write(buff, 2));
 2320              		.loc 1 282 17 view .LVU637
 2321 0082 8DF80D70 		strb	r7, [sp, #13]
 2322              	.LVL120:
 2323              	.LBB882:
 2324              	.LBI871:
  63:./libDaisy//src/dev/mpr121.h ****     {
 2325              		.loc 1 63 10 is_stmt 1 view .LVU638
 2326              	.LBB874:
  65:./libDaisy//src/dev/mpr121.h ****                != i2c_.TransmitBlocking(config_.dev_addr, data, size, 10);
 2327              		.loc 1 65 9 view .LVU639
 2328              	.L107:
  66:./libDaisy//src/dev/mpr121.h ****     }
 2329              		.loc 1 66 40 is_stmt 0 view .LVU640
 2330 0086 94F82C10 		ldrb	r1, [r4, #44]	@ zero_extendqisi2
 2331 008a FFF7FEFF 		bl	_ZN5daisy9I2CHandle16TransmitBlockingEtPhtm
 2332              	.LVL121:
  66:./libDaisy//src/dev/mpr121.h ****     }
 2333              		.loc 1 66 40 view .LVU641
 2334              	.LBE874:
 2335              	.LBE882:
 2336              	.LBB883:
 2337              	.LBI883:
ARM GAS  /var/folders/z2/7_lhr9dn53s9tj4s0rwtyswm0000gn/T//ccOZi2Cx.s 			page 73


 2338              		.loc 1 343 10 is_stmt 1 view .LVU642
 2339              	.LBB884:
 2340              		.loc 1 343 55 is_stmt 0 view .LVU643
 2341 008e 94F83030 		ldrb	r3, [r4, #48]	@ zero_extendqisi2
 2342 0092 0028     		cmp	r0, #0
 2343 0094 18BF     		it	ne
 2344 0096 43F00103 		orrne	r3, r3, #1
 2345 009a 84F83030 		strb	r3, [r4, #48]
 2346              	.LVL122:
 2347              		.loc 1 343 55 view .LVU644
 2348              	.LBE884:
 2349              	.LBE883:
 292:./libDaisy//src/dev/mpr121.h **** 
 2350              		.loc 1 292 5 view .LVU645
 2351 009e 05B0     		add	sp, sp, #20
 2352              		.cfi_remember_state
 2353              		.cfi_def_cfa_offset 28
 2354              		@ sp needed
 2355 00a0 BDE8F083 		pop	{r4, r5, r6, r7, r8, r9, pc}
 2356              	.LVL123:
 2357              	.L108:
 2358              		.cfi_restore_state
 2359              	.LBB888:
 2360              	.LBI888:
  63:./libDaisy//src/dev/mpr121.h ****     {
 2361              		.loc 1 63 10 is_stmt 1 view .LVU646
 2362              	.LBB889:
  65:./libDaisy//src/dev/mpr121.h ****                != i2c_.TransmitBlocking(config_.dev_addr, data, size, 10);
 2363              		.loc 1 65 9 view .LVU647
  66:./libDaisy//src/dev/mpr121.h ****     }
 2364              		.loc 1 66 40 is_stmt 0 view .LVU648
 2365 00a4 0223     		movs	r3, #2
 2366 00a6 03AA     		add	r2, sp, #12
 2367              	.LVL124:
  66:./libDaisy//src/dev/mpr121.h ****     }
 2368              		.loc 1 66 40 view .LVU649
 2369 00a8 CDF80080 		str	r8, [sp]
 2370 00ac 3046     		mov	r0, r6
 2371 00ae 94F82C10 		ldrb	r1, [r4, #44]	@ zero_extendqisi2
 2372 00b2 FFF7FEFF 		bl	_ZN5daisy9I2CHandle16TransmitBlockingEtPhtm
 2373              	.LVL125:
  66:./libDaisy//src/dev/mpr121.h ****     }
 2374              		.loc 1 66 40 view .LVU650
 2375              	.LBE889:
 2376              	.LBE888:
 2377              	.LBB890:
 2378              	.LBI890:
 2379              		.loc 1 343 10 is_stmt 1 view .LVU651
 2380              	.LBE890:
 2381              	.LBB894:
 2382              	.LBB875:
  66:./libDaisy//src/dev/mpr121.h ****     }
 2383              		.loc 1 66 40 is_stmt 0 view .LVU652
 2384 00b6 CDF80080 		str	r8, [sp]
 2385              	.LBE875:
 2386              	.LBE894:
 2387              	.LBB895:
ARM GAS  /var/folders/z2/7_lhr9dn53s9tj4s0rwtyswm0000gn/T//ccOZi2Cx.s 			page 74


 2388              	.LBB891:
 2389              		.loc 1 343 55 view .LVU653
 2390 00ba 94F83030 		ldrb	r3, [r4, #48]	@ zero_extendqisi2
 2391              	.LBE891:
 2392              	.LBE895:
 2393              	.LBB896:
 2394              	.LBB876:
  66:./libDaisy//src/dev/mpr121.h ****     }
 2395              		.loc 1 66 40 view .LVU654
 2396 00be 03AA     		add	r2, sp, #12
 2397 00c0 94F82C10 		ldrb	r1, [r4, #44]	@ zero_extendqisi2
 2398              	.LBE876:
 2399              	.LBE896:
 2400              	.LBB897:
 2401              	.LBB892:
 2402              		.loc 1 343 55 view .LVU655
 2403 00c4 0028     		cmp	r0, #0
 2404 00c6 18BF     		it	ne
 2405 00c8 43F00103 		orrne	r3, r3, #1
 2406              	.LBE892:
 2407              	.LBE897:
 2408              	.LBB898:
 2409              	.LBB877:
  66:./libDaisy//src/dev/mpr121.h ****     }
 2410              		.loc 1 66 40 view .LVU656
 2411 00cc 3046     		mov	r0, r6
 2412              	.LVL126:
  66:./libDaisy//src/dev/mpr121.h ****     }
 2413              		.loc 1 66 40 view .LVU657
 2414              	.LBE877:
 2415              	.LBE898:
 281:./libDaisy//src/dev/mpr121.h ****         buff[1] = value;
 2416              		.loc 1 281 17 view .LVU658
 2417 00ce 8DF80C50 		strb	r5, [sp, #12]
 2418              	.LBB899:
 2419              	.LBB893:
 2420              		.loc 1 343 55 view .LVU659
 2421 00d2 84F83030 		strb	r3, [r4, #48]
 2422              	.LVL127:
 2423              		.loc 1 343 55 view .LVU660
 2424              	.LBE893:
 2425              	.LBE899:
 2426              	.LBB900:
  63:./libDaisy//src/dev/mpr121.h ****     {
 2427              		.loc 1 63 10 is_stmt 1 view .LVU661
 2428              	.LBB878:
  65:./libDaisy//src/dev/mpr121.h ****                != i2c_.TransmitBlocking(config_.dev_addr, data, size, 10);
 2429              		.loc 1 65 9 view .LVU662
  66:./libDaisy//src/dev/mpr121.h ****     }
 2430              		.loc 1 66 40 is_stmt 0 view .LVU663
 2431 00d6 0223     		movs	r3, #2
 2432              	.LBE878:
 2433              	.LBE900:
 282:./libDaisy//src/dev/mpr121.h ****         SetTransportErr(transport_.Write(buff, 2));
 2434              		.loc 1 282 17 view .LVU664
 2435 00d8 8DF80D70 		strb	r7, [sp, #13]
 2436              	.LBB901:
ARM GAS  /var/folders/z2/7_lhr9dn53s9tj4s0rwtyswm0000gn/T//ccOZi2Cx.s 			page 75


 2437              	.LBB879:
  66:./libDaisy//src/dev/mpr121.h ****     }
 2438              		.loc 1 66 40 view .LVU665
 2439 00dc FFF7FEFF 		bl	_ZN5daisy9I2CHandle16TransmitBlockingEtPhtm
 2440              	.LVL128:
  66:./libDaisy//src/dev/mpr121.h ****     }
 2441              		.loc 1 66 40 view .LVU666
 2442              	.LBE879:
 2443              	.LBE901:
 2444              	.LBB902:
 2445              	.LBB903:
 2446 00e0 CDF80080 		str	r8, [sp]
 2447              	.LBE903:
 2448              	.LBE902:
 2449              	.LBB908:
 2450              	.LBB880:
 2451 00e4 0546     		mov	r5, r0
 2452              	.LVL129:
  66:./libDaisy//src/dev/mpr121.h ****     }
 2453              		.loc 1 66 40 view .LVU667
 2454              	.LBE880:
 2455              	.LBE908:
 2456              	.LBB909:
 2457              		.loc 1 343 10 is_stmt 1 view .LVU668
 2458              	.LBB885:
 2459              		.loc 1 343 55 is_stmt 0 view .LVU669
 2460 00e6 94F83010 		ldrb	r1, [r4, #48]	@ zero_extendqisi2
 2461              	.LBE885:
 2462              	.LBE909:
 2463              	.LBB910:
 2464              	.LBB904:
  66:./libDaisy//src/dev/mpr121.h ****     }
 2465              		.loc 1 66 40 view .LVU670
 2466 00ea 03AA     		add	r2, sp, #12
 2467              	.LBE904:
 2468              	.LBE910:
 289:./libDaisy//src/dev/mpr121.h ****             SetTransportErr(transport_.Write(buff, 2));
 2469              		.loc 1 289 21 view .LVU671
 2470 00ec 9DF80B30 		ldrb	r3, [sp, #11]	@ zero_extendqisi2
 2471              	.LBB911:
 2472              	.LBB905:
  66:./libDaisy//src/dev/mpr121.h ****     }
 2473              		.loc 1 66 40 view .LVU672
 2474 00f0 3046     		mov	r0, r6
 2475              	.LVL130:
  66:./libDaisy//src/dev/mpr121.h ****     }
 2476              		.loc 1 66 40 view .LVU673
 2477              	.LBE905:
 2478              	.LBE911:
 2479              	.LBB912:
 2480              	.LBB886:
 2481              		.loc 1 343 55 view .LVU674
 2482 00f2 002D     		cmp	r5, #0
 2483 00f4 18BF     		it	ne
 2484 00f6 41F00101 		orrne	r1, r1, #1
 2485              	.LBE886:
 2486              	.LBE912:
ARM GAS  /var/folders/z2/7_lhr9dn53s9tj4s0rwtyswm0000gn/T//ccOZi2Cx.s 			page 76


 288:./libDaisy//src/dev/mpr121.h ****             buff[1] = ecr_backup;
 2487              		.loc 1 288 21 view .LVU675
 2488 00fa 8DF80C90 		strb	r9, [sp, #12]
 289:./libDaisy//src/dev/mpr121.h ****             SetTransportErr(transport_.Write(buff, 2));
 2489              		.loc 1 289 21 view .LVU676
 2490 00fe 8DF80D30 		strb	r3, [sp, #13]
 2491              	.LBB913:
 2492              	.LBB906:
  66:./libDaisy//src/dev/mpr121.h ****     }
 2493              		.loc 1 66 40 view .LVU677
 2494 0102 0223     		movs	r3, #2
 2495              	.LBE906:
 2496              	.LBE913:
 2497              	.LBB914:
 2498              	.LBB887:
 2499              		.loc 1 343 55 view .LVU678
 2500 0104 84F83010 		strb	r1, [r4, #48]
 2501              	.LVL131:
 2502              		.loc 1 343 55 view .LVU679
 2503              	.LBE887:
 2504              	.LBE914:
 2505              	.LBB915:
 2506              	.LBI902:
  63:./libDaisy//src/dev/mpr121.h ****     {
 2507              		.loc 1 63 10 is_stmt 1 view .LVU680
 2508              	.LBB907:
  65:./libDaisy//src/dev/mpr121.h ****                != i2c_.TransmitBlocking(config_.dev_addr, data, size, 10);
 2509              		.loc 1 65 9 view .LVU681
 2510 0108 BDE7     		b	.L107
 2511              	.LBE907:
 2512              	.LBE915:
 2513              		.cfi_endproc
 2514              	.LFE5202:
 2516 010a 00BF     		.section	.text.startup.main,"ax",%progbits
 2517              		.align	1
 2518              		.p2align 2,,3
 2519              		.global	main
 2520              		.syntax unified
 2521              		.thumb
 2522              		.thumb_func
 2524              	main:
 2525              	.LFB4760:
 158:MPR121.cpp    **** 
 159:MPR121.cpp    **** int main(void)
 160:MPR121.cpp    **** {
 2526              		.loc 14 160 1 view -0
 2527              		.cfi_startproc
 2528              		@ args = 0, pretend = 0, frame = 40
 2529              		@ frame_needed = 0, uses_anonymous_args = 0
 161:MPR121.cpp    **** 
 162:MPR121.cpp    **** 	hw.Init();
 2530              		.loc 14 162 2 view .LVU683
 160:MPR121.cpp    **** 
 2531              		.loc 14 160 1 is_stmt 0 view .LVU684
 2532 0000 2DE9F04F 		push	{r4, r5, r6, r7, r8, r9, r10, fp, lr}
 2533              		.cfi_def_cfa_offset 36
 2534              		.cfi_offset 4, -36
ARM GAS  /var/folders/z2/7_lhr9dn53s9tj4s0rwtyswm0000gn/T//ccOZi2Cx.s 			page 77


 2535              		.cfi_offset 5, -32
 2536              		.cfi_offset 6, -28
 2537              		.cfi_offset 7, -24
 2538              		.cfi_offset 8, -20
 2539              		.cfi_offset 9, -16
 2540              		.cfi_offset 10, -12
 2541              		.cfi_offset 11, -8
 2542              		.cfi_offset 14, -4
 2543 0004 2DED028B 		vpush.64	{d8}
 2544              		.cfi_def_cfa_offset 44
 2545              		.cfi_offset 80, -44
 2546              		.cfi_offset 81, -40
 2547 0008 8DB0     		sub	sp, sp, #52
 2548              		.cfi_def_cfa_offset 96
 2549 000a 0027     		movs	r7, #0
 2550 000c 4FF00108 		mov	r8, #1
 2551 0010 DFF81493 		ldr	r9, .L116+24
 2552 0014 4FF05A0B 		mov	fp, #90
 2553              	.LBB1051:
 2554              	.LBB1052:
  49:./libDaisy//src/dev/mpr121.h **** 
 2555              		.loc 1 49 17 view .LVU685
 2556 0018 02AD     		add	r5, sp, #8
 2557              	.LBE1052:
 2558              	.LBE1051:
 2559              		.loc 14 162 9 view .LVU686
 2560 001a 3946     		mov	r1, r7
 2561 001c BC48     		ldr	r0, .L116
 2562 001e FFF7FEFF 		bl	_ZN5daisy10Tusenskona4InitEb
 2563              	.LVL132:
 163:MPR121.cpp    **** 
 164:MPR121.cpp    ****     auto i2cconfig = Mpr121I2CTransport::Config();
 2564              		.loc 14 164 5 is_stmt 1 view .LVU687
 2565              	.LBB1062:
 2566              	.LBI1062:
  34:./libDaisy//src/dev/mpr121.h ****         {
 2567              		.loc 1 34 9 view .LVU688
 2568              	.LBB1063:
 2569              	.LBI1063:
 2570              		.file 18 "./libDaisy//src/daisy_core.h"
   1:./libDaisy//src/daisy_core.h **** #pragma once
   2:./libDaisy//src/daisy_core.h **** #ifndef DSY_CORE_HW_H
   3:./libDaisy//src/daisy_core.h **** #define DSY_CORE_HW_H /**< & */
   4:./libDaisy//src/daisy_core.h **** #include <stdint.h>
   5:./libDaisy//src/daisy_core.h **** #include <stdlib.h>
   6:./libDaisy//src/daisy_core.h **** 
   7:./libDaisy//src/daisy_core.h **** #if defined(_MSC_VER)
   8:./libDaisy//src/daisy_core.h **** #define FORCE_INLINE __forceinline /**< & */
   9:./libDaisy//src/daisy_core.h **** #elif defined(__clang__)
  10:./libDaisy//src/daisy_core.h **** #define FORCE_INLINE inline __attribute__((always_inline)) /**< & */
  11:./libDaisy//src/daisy_core.h **** #pragma clang diagnostic ignored "-Wduplicate-decl-specifier"
  12:./libDaisy//src/daisy_core.h **** #elif defined(__GNUC__)
  13:./libDaisy//src/daisy_core.h **** #define FORCE_INLINE inline __attribute__((always_inline)) /**< & */
  14:./libDaisy//src/daisy_core.h **** #else
  15:./libDaisy//src/daisy_core.h **** #error unknown compiler
  16:./libDaisy//src/daisy_core.h **** #endif
  17:./libDaisy//src/daisy_core.h **** 
ARM GAS  /var/folders/z2/7_lhr9dn53s9tj4s0rwtyswm0000gn/T//ccOZi2Cx.s 			page 78


  18:./libDaisy//src/daisy_core.h **** /** @addtogroup utility
  19:./libDaisy//src/daisy_core.h ****     @{
  20:./libDaisy//src/daisy_core.h **** */
  21:./libDaisy//src/daisy_core.h **** 
  22:./libDaisy//src/daisy_core.h **** /** Macro for area of memory that is configured as cacheless
  23:./libDaisy//src/daisy_core.h **** This should be used primarily for DMA buffers, and the like.
  24:./libDaisy//src/daisy_core.h **** */
  25:./libDaisy//src/daisy_core.h **** #define DMA_BUFFER_MEM_SECTION __attribute__((section(".sram1_bss")))
  26:./libDaisy//src/daisy_core.h **** /** 
  27:./libDaisy//src/daisy_core.h **** THE DTCM RAM section is also non-cached. However, is not suitable 
  28:./libDaisy//src/daisy_core.h **** for DMA transfers. Performance is on par with internal SRAM w/ 
  29:./libDaisy//src/daisy_core.h **** cache enabled.
  30:./libDaisy//src/daisy_core.h **** */
  31:./libDaisy//src/daisy_core.h **** #define DTCM_MEM_SECTION __attribute__((section(".dtcmram_bss")))
  32:./libDaisy//src/daisy_core.h **** 
  33:./libDaisy//src/daisy_core.h **** #define FBIPMAX 0.999985f             /**< close to 1.0f-LSB at 16 bit */
  34:./libDaisy//src/daisy_core.h **** #define FBIPMIN (-FBIPMAX)            /**< - (1 - LSB) */
  35:./libDaisy//src/daisy_core.h **** #define U82F_SCALE 0.0078740f         /**< 1 / 127 */
  36:./libDaisy//src/daisy_core.h **** #define F2U8_SCALE 127.0f             /**< 128 - 1 */
  37:./libDaisy//src/daisy_core.h **** #define S82F_SCALE 0.0078125f         /**< 1 / (2**7) */
  38:./libDaisy//src/daisy_core.h **** #define F2S8_SCALE 127.0f             /**< (2 ** 7) - 1 */
  39:./libDaisy//src/daisy_core.h **** #define S162F_SCALE 3.0517578125e-05f /**< 1 / (2** 15) */
  40:./libDaisy//src/daisy_core.h **** #define F2S16_SCALE 32767.0f          /**< (2 ** 15) - 1 */
  41:./libDaisy//src/daisy_core.h **** #define F2S24_SCALE 8388608.0f        /**< 2 ** 23 */
  42:./libDaisy//src/daisy_core.h **** #define S242F_SCALE 1.192092896e-07f  /**< 1 / (2 ** 23) */
  43:./libDaisy//src/daisy_core.h **** #define S24SIGN 0x800000              /**< 2 ** 23 */
  44:./libDaisy//src/daisy_core.h **** #define S322F_SCALE 4.6566129e-10f    /**< 1 / (2** 31) */
  45:./libDaisy//src/daisy_core.h **** #define F2S32_SCALE 2147483647.f      /**< (2 ** 31) - 1 */
  46:./libDaisy//src/daisy_core.h **** 
  47:./libDaisy//src/daisy_core.h **** 
  48:./libDaisy//src/daisy_core.h **** /** shorthand macro for simplifying the reading of the left 
  49:./libDaisy//src/daisy_core.h ****  *  channel of a non-interleaved output buffer named out */
  50:./libDaisy//src/daisy_core.h **** #define OUT_L out[0]
  51:./libDaisy//src/daisy_core.h **** 
  52:./libDaisy//src/daisy_core.h **** /** shorthand macro for simplifying the reading of the right 
  53:./libDaisy//src/daisy_core.h ****  *  channel of a non-interleaved output buffer named out */
  54:./libDaisy//src/daisy_core.h **** #define OUT_R out[1]
  55:./libDaisy//src/daisy_core.h **** 
  56:./libDaisy//src/daisy_core.h **** /** shorthand macro for simplifying the reading of the left 
  57:./libDaisy//src/daisy_core.h ****  *  channel of a non-interleaved input buffer named in */
  58:./libDaisy//src/daisy_core.h **** #define IN_L in[0]
  59:./libDaisy//src/daisy_core.h **** 
  60:./libDaisy//src/daisy_core.h **** /** shorthand macro for simplifying the reading of the right 
  61:./libDaisy//src/daisy_core.h ****  *  channel of a non-interleaved input buffer named in */
  62:./libDaisy//src/daisy_core.h **** #define IN_R in[1]
  63:./libDaisy//src/daisy_core.h **** 
  64:./libDaisy//src/daisy_core.h **** /** 
  65:./libDaisy//src/daisy_core.h ****     Computes cube.
  66:./libDaisy//src/daisy_core.h ****     \param x Number to be cubed
  67:./libDaisy//src/daisy_core.h ****     \return x ^ 3
  68:./libDaisy//src/daisy_core.h **** */
  69:./libDaisy//src/daisy_core.h **** FORCE_INLINE float cube(float x)
  70:./libDaisy//src/daisy_core.h **** {
  71:./libDaisy//src/daisy_core.h ****     return (x * x) * x;
  72:./libDaisy//src/daisy_core.h **** }
  73:./libDaisy//src/daisy_core.h **** 
  74:./libDaisy//src/daisy_core.h **** /** 
ARM GAS  /var/folders/z2/7_lhr9dn53s9tj4s0rwtyswm0000gn/T//ccOZi2Cx.s 			page 79


  75:./libDaisy//src/daisy_core.h ****     Converts unsigned 8-bit to float
  76:./libDaisy//src/daisy_core.h ****     \param x Number to be scaled.
  77:./libDaisy//src/daisy_core.h ****     \return Scaled number.
  78:./libDaisy//src/daisy_core.h **** */
  79:./libDaisy//src/daisy_core.h **** FORCE_INLINE float u82f(uint8_t x)
  80:./libDaisy//src/daisy_core.h **** {
  81:./libDaisy//src/daisy_core.h ****     return ((float)x - 127.f) * U82F_SCALE;
  82:./libDaisy//src/daisy_core.h **** }
  83:./libDaisy//src/daisy_core.h **** 
  84:./libDaisy//src/daisy_core.h **** /**
  85:./libDaisy//src/daisy_core.h ****     Converts float to unsigned 8-bit
  86:./libDaisy//src/daisy_core.h **** */
  87:./libDaisy//src/daisy_core.h **** FORCE_INLINE uint8_t f2u8(float x)
  88:./libDaisy//src/daisy_core.h **** {
  89:./libDaisy//src/daisy_core.h ****     x = x <= FBIPMIN ? FBIPMIN : x;
  90:./libDaisy//src/daisy_core.h ****     x = x >= FBIPMAX ? FBIPMAX : x;
  91:./libDaisy//src/daisy_core.h ****     return (uint8_t)((x * F2U8_SCALE) + F2U8_SCALE);
  92:./libDaisy//src/daisy_core.h **** }
  93:./libDaisy//src/daisy_core.h **** 
  94:./libDaisy//src/daisy_core.h **** 
  95:./libDaisy//src/daisy_core.h **** /** 
  96:./libDaisy//src/daisy_core.h ****     Converts Signed 8-bit to float
  97:./libDaisy//src/daisy_core.h ****     \param x Number to be scaled.
  98:./libDaisy//src/daisy_core.h ****     \return Scaled number.
  99:./libDaisy//src/daisy_core.h **** */
 100:./libDaisy//src/daisy_core.h **** FORCE_INLINE float s82f(int8_t x)
 101:./libDaisy//src/daisy_core.h **** {
 102:./libDaisy//src/daisy_core.h ****     return (float)x * S82F_SCALE;
 103:./libDaisy//src/daisy_core.h **** }
 104:./libDaisy//src/daisy_core.h **** 
 105:./libDaisy//src/daisy_core.h **** /**
 106:./libDaisy//src/daisy_core.h ****     Converts float to Signed 8-bit
 107:./libDaisy//src/daisy_core.h **** */
 108:./libDaisy//src/daisy_core.h **** FORCE_INLINE int8_t f2s8(float x)
 109:./libDaisy//src/daisy_core.h **** {
 110:./libDaisy//src/daisy_core.h ****     x = x <= FBIPMIN ? FBIPMIN : x;
 111:./libDaisy//src/daisy_core.h ****     x = x >= FBIPMAX ? FBIPMAX : x;
 112:./libDaisy//src/daisy_core.h ****     return (int32_t)(x * F2S8_SCALE);
 113:./libDaisy//src/daisy_core.h **** }
 114:./libDaisy//src/daisy_core.h **** 
 115:./libDaisy//src/daisy_core.h **** /** 
 116:./libDaisy//src/daisy_core.h ****     Converts Signed 16-bit to float
 117:./libDaisy//src/daisy_core.h ****     \param x Number to be scaled.
 118:./libDaisy//src/daisy_core.h ****     \return Scaled number.
 119:./libDaisy//src/daisy_core.h **** */
 120:./libDaisy//src/daisy_core.h **** FORCE_INLINE float s162f(int16_t x)
 121:./libDaisy//src/daisy_core.h **** {
 122:./libDaisy//src/daisy_core.h ****     return (float)x * S162F_SCALE;
 123:./libDaisy//src/daisy_core.h **** }
 124:./libDaisy//src/daisy_core.h **** 
 125:./libDaisy//src/daisy_core.h **** /**
 126:./libDaisy//src/daisy_core.h ****     Converts float to Signed 16-bit
 127:./libDaisy//src/daisy_core.h **** */
 128:./libDaisy//src/daisy_core.h **** FORCE_INLINE int16_t f2s16(float x)
 129:./libDaisy//src/daisy_core.h **** {
 130:./libDaisy//src/daisy_core.h ****     x = x <= FBIPMIN ? FBIPMIN : x;
 131:./libDaisy//src/daisy_core.h ****     x = x >= FBIPMAX ? FBIPMAX : x;
ARM GAS  /var/folders/z2/7_lhr9dn53s9tj4s0rwtyswm0000gn/T//ccOZi2Cx.s 			page 80


 132:./libDaisy//src/daisy_core.h ****     return (int32_t)(x * F2S16_SCALE);
 133:./libDaisy//src/daisy_core.h **** }
 134:./libDaisy//src/daisy_core.h **** 
 135:./libDaisy//src/daisy_core.h **** /**
 136:./libDaisy//src/daisy_core.h ****     Converts Signed 24-bit to float
 137:./libDaisy//src/daisy_core.h ****  */
 138:./libDaisy//src/daisy_core.h **** FORCE_INLINE float s242f(int32_t x)
 139:./libDaisy//src/daisy_core.h **** {
 140:./libDaisy//src/daisy_core.h ****     x = (x ^ S24SIGN) - S24SIGN; //sign extend aka ((x<<8)>>8)
 141:./libDaisy//src/daisy_core.h ****     return (float)x * S242F_SCALE;
 142:./libDaisy//src/daisy_core.h **** }
 143:./libDaisy//src/daisy_core.h **** /**
 144:./libDaisy//src/daisy_core.h ****     Converts float to Signed 24-bit
 145:./libDaisy//src/daisy_core.h ****  */
 146:./libDaisy//src/daisy_core.h **** FORCE_INLINE int32_t f2s24(float x)
 147:./libDaisy//src/daisy_core.h **** {
 148:./libDaisy//src/daisy_core.h ****     x = x <= FBIPMIN ? FBIPMIN : x;
 149:./libDaisy//src/daisy_core.h ****     x = x >= FBIPMAX ? FBIPMAX : x;
 150:./libDaisy//src/daisy_core.h ****     return (int32_t)(x * F2S24_SCALE);
 151:./libDaisy//src/daisy_core.h **** }
 152:./libDaisy//src/daisy_core.h **** 
 153:./libDaisy//src/daisy_core.h **** /**
 154:./libDaisy//src/daisy_core.h ****     Converts Signed 32-bit to float
 155:./libDaisy//src/daisy_core.h ****  */
 156:./libDaisy//src/daisy_core.h **** FORCE_INLINE float s322f(int32_t x)
 157:./libDaisy//src/daisy_core.h **** {
 158:./libDaisy//src/daisy_core.h ****     return (float)x * S322F_SCALE;
 159:./libDaisy//src/daisy_core.h **** }
 160:./libDaisy//src/daisy_core.h **** /**
 161:./libDaisy//src/daisy_core.h ****     Converts float to Signed 24-bit
 162:./libDaisy//src/daisy_core.h ****  */
 163:./libDaisy//src/daisy_core.h **** FORCE_INLINE int32_t f2s32(float x)
 164:./libDaisy//src/daisy_core.h **** {
 165:./libDaisy//src/daisy_core.h ****     x = x <= FBIPMIN ? FBIPMIN : x;
 166:./libDaisy//src/daisy_core.h ****     x = x >= FBIPMAX ? FBIPMAX : x;
 167:./libDaisy//src/daisy_core.h ****     return (int32_t)(x * F2S32_SCALE);
 168:./libDaisy//src/daisy_core.h **** }
 169:./libDaisy//src/daisy_core.h **** 
 170:./libDaisy//src/daisy_core.h **** 
 171:./libDaisy//src/daisy_core.h **** /** Enums and a simple struct for defining a hardware pin on the MCU
 172:./libDaisy//src/daisy_core.h ****  *  These correlate with the stm32 datasheet, and are used to configure
 173:./libDaisy//src/daisy_core.h ****  *  the hardware.
 174:./libDaisy//src/daisy_core.h ****  * 
 175:./libDaisy//src/daisy_core.h ****  *  This along with the dsy_gpio_pin class should no longer be used.
 176:./libDaisy//src/daisy_core.h ****  *  They are available for backwards compatability. 
 177:./libDaisy//src/daisy_core.h ****  * 
 178:./libDaisy//src/daisy_core.h ****  *  Please use GPIOPort enum and the Pin struct instead.
 179:./libDaisy//src/daisy_core.h ****  */
 180:./libDaisy//src/daisy_core.h **** typedef enum
 181:./libDaisy//src/daisy_core.h **** {
 182:./libDaisy//src/daisy_core.h ****     DSY_GPIOA, /**< & */
 183:./libDaisy//src/daisy_core.h ****     DSY_GPIOB, /**< & */
 184:./libDaisy//src/daisy_core.h ****     DSY_GPIOC, /**< & */
 185:./libDaisy//src/daisy_core.h ****     DSY_GPIOD, /**< & */
 186:./libDaisy//src/daisy_core.h ****     DSY_GPIOE, /**< & */
 187:./libDaisy//src/daisy_core.h ****     DSY_GPIOF, /**< & */
 188:./libDaisy//src/daisy_core.h ****     DSY_GPIOG, /**< & */
ARM GAS  /var/folders/z2/7_lhr9dn53s9tj4s0rwtyswm0000gn/T//ccOZi2Cx.s 			page 81


 189:./libDaisy//src/daisy_core.h ****     DSY_GPIOH, /**< & */
 190:./libDaisy//src/daisy_core.h ****     DSY_GPIOI, /**< & */
 191:./libDaisy//src/daisy_core.h ****     DSY_GPIOJ, /**< & */
 192:./libDaisy//src/daisy_core.h ****     DSY_GPIOK, /**< & */
 193:./libDaisy//src/daisy_core.h ****     DSY_GPIOX, /** This is a non-existant port for unsupported bits of hardware. */
 194:./libDaisy//src/daisy_core.h ****     DSY_GPIO_LAST, /** Final enum member */
 195:./libDaisy//src/daisy_core.h **** } dsy_gpio_port;
 196:./libDaisy//src/daisy_core.h **** 
 197:./libDaisy//src/daisy_core.h **** /** Hardware define pins 
 198:./libDaisy//src/daisy_core.h ****  *  
 199:./libDaisy//src/daisy_core.h ****  *  The dsy_gpio_pin struct should no longer be used, and is only available for
 200:./libDaisy//src/daisy_core.h ****  *  backwards compatability.
 201:./libDaisy//src/daisy_core.h ****  * 
 202:./libDaisy//src/daisy_core.h ****  *  Please use Pin struct instead.
 203:./libDaisy//src/daisy_core.h ****  */
 204:./libDaisy//src/daisy_core.h **** typedef struct
 205:./libDaisy//src/daisy_core.h **** {
 206:./libDaisy//src/daisy_core.h ****     dsy_gpio_port port; /**< & */
 207:./libDaisy//src/daisy_core.h ****     uint8_t       pin;  /**< number 0-15 */
 208:./libDaisy//src/daisy_core.h **** } dsy_gpio_pin;
 209:./libDaisy//src/daisy_core.h **** 
 210:./libDaisy//src/daisy_core.h **** /** Helper for creating pins from port/pin combos easily
 211:./libDaisy//src/daisy_core.h ****  * 
 212:./libDaisy//src/daisy_core.h ****  *  The dsy_gpio_pin struct should no longer be used, and is only available for
 213:./libDaisy//src/daisy_core.h ****  *  backwards compatability.
 214:./libDaisy//src/daisy_core.h ****  * 
 215:./libDaisy//src/daisy_core.h ****  *  Please use Pin struct instead.
 216:./libDaisy//src/daisy_core.h **** */
 217:./libDaisy//src/daisy_core.h **** FORCE_INLINE dsy_gpio_pin dsy_pin(dsy_gpio_port port, uint8_t pin)
 218:./libDaisy//src/daisy_core.h **** {
 219:./libDaisy//src/daisy_core.h ****     dsy_gpio_pin p;
 220:./libDaisy//src/daisy_core.h ****     p.port = port;
 221:./libDaisy//src/daisy_core.h ****     p.pin  = pin;
 222:./libDaisy//src/daisy_core.h ****     return p;
 223:./libDaisy//src/daisy_core.h **** }
 224:./libDaisy//src/daisy_core.h **** 
 225:./libDaisy//src/daisy_core.h **** /** Helper for testing sameness of two dsy_gpio_pins
 226:./libDaisy//src/daisy_core.h ****  *  \return    1 if same, 0 if different
 227:./libDaisy//src/daisy_core.h ****  * 
 228:./libDaisy//src/daisy_core.h ****  *  The dsy_gpio_pin struct should no longer be used, and is only available for
 229:./libDaisy//src/daisy_core.h ****  *  backwards compatability.
 230:./libDaisy//src/daisy_core.h ****  * 
 231:./libDaisy//src/daisy_core.h ****  *  Please use Pin struct instead.
 232:./libDaisy//src/daisy_core.h ****  */
 233:./libDaisy//src/daisy_core.h **** FORCE_INLINE uint8_t dsy_pin_cmp(dsy_gpio_pin *a, dsy_gpio_pin *b)
 234:./libDaisy//src/daisy_core.h **** {
 235:./libDaisy//src/daisy_core.h ****     return ((a->port == b->port) && (a->pin == b->pin));
 236:./libDaisy//src/daisy_core.h **** }
 237:./libDaisy//src/daisy_core.h **** 
 238:./libDaisy//src/daisy_core.h **** #ifdef __cplusplus
 239:./libDaisy//src/daisy_core.h **** 
 240:./libDaisy//src/daisy_core.h **** namespace daisy
 241:./libDaisy//src/daisy_core.h **** {
 242:./libDaisy//src/daisy_core.h **** /** @brief GPIO Port names */
 243:./libDaisy//src/daisy_core.h **** enum GPIOPort
 244:./libDaisy//src/daisy_core.h **** {
 245:./libDaisy//src/daisy_core.h ****     PORTA, /**< Port A */
ARM GAS  /var/folders/z2/7_lhr9dn53s9tj4s0rwtyswm0000gn/T//ccOZi2Cx.s 			page 82


 246:./libDaisy//src/daisy_core.h ****     PORTB, /**< Port B */
 247:./libDaisy//src/daisy_core.h ****     PORTC, /**< Port C */
 248:./libDaisy//src/daisy_core.h ****     PORTD, /**< Port D */
 249:./libDaisy//src/daisy_core.h ****     PORTE, /**< Port E */
 250:./libDaisy//src/daisy_core.h ****     PORTF, /**< Port F */
 251:./libDaisy//src/daisy_core.h ****     PORTG, /**< Port G */
 252:./libDaisy//src/daisy_core.h ****     PORTH, /**< Port H */
 253:./libDaisy//src/daisy_core.h ****     PORTI, /**< Port I */
 254:./libDaisy//src/daisy_core.h ****     PORTJ, /**< Port J */
 255:./libDaisy//src/daisy_core.h ****     PORTK, /**< Port K */
 256:./libDaisy//src/daisy_core.h ****     PORTX, /**< Used as a dummy port to signal an invalid pin. */
 257:./libDaisy//src/daisy_core.h **** };
 258:./libDaisy//src/daisy_core.h **** 
 259:./libDaisy//src/daisy_core.h **** /** @brief representation of hardware port/pin combination */
 260:./libDaisy//src/daisy_core.h **** struct Pin
 261:./libDaisy//src/daisy_core.h **** {
 262:./libDaisy//src/daisy_core.h ****     GPIOPort port;
 263:./libDaisy//src/daisy_core.h ****     uint8_t  pin;
 264:./libDaisy//src/daisy_core.h **** 
 265:./libDaisy//src/daisy_core.h ****     /** @brief Constructor creates a valid pin. 
 266:./libDaisy//src/daisy_core.h ****      *  @param pt GPIOPort between PA, and PK corresponding to STM32 Port.
 267:./libDaisy//src/daisy_core.h ****      *  @param pn pin number in range of 0-15
 268:./libDaisy//src/daisy_core.h ****     */
 269:./libDaisy//src/daisy_core.h ****     constexpr Pin(const GPIOPort pt, const uint8_t pn) : port(pt), pin(pn) {}
 270:./libDaisy//src/daisy_core.h **** 
 271:./libDaisy//src/daisy_core.h ****     /** @brief Basic Constructor creates an invalid Pin object */
 272:./libDaisy//src/daisy_core.h ****     constexpr Pin() : port(PORTX), pin(255) {}
 2571              		.loc 18 272 15 view .LVU689
 2572              		.loc 18 272 15 is_stmt 0 view .LVU690
 2573              	.LBE1063:
 2574              	.LBB1064:
 2575              	.LBI1064:
 2576              		.loc 18 272 15 is_stmt 1 view .LVU691
 2577              		.loc 18 272 15 is_stmt 0 view .LVU692
 2578              	.LBE1064:
 2579              	.LBE1062:
  36:./libDaisy//src/dev/mpr121.h ****             speed  = I2CHandle::Config::Speed::I2C_400KHZ;
 2580              		.loc 1 36 13 is_stmt 1 view .LVU693
  37:./libDaisy//src/dev/mpr121.h **** 
 2581              		.loc 1 37 13 view .LVU694
  39:./libDaisy//src/dev/mpr121.h ****             sda = Pin(PORTB, 9);
 2582              		.loc 1 39 13 view .LVU695
 2583              	.LBB1067:
 2584              	.LBB1065:
 2585              	.LBI1065:
 269:./libDaisy//src/daisy_core.h **** 
 2586              		.loc 18 269 15 view .LVU696
 269:./libDaisy//src/daisy_core.h **** 
 2587              		.loc 18 269 15 is_stmt 0 view .LVU697
 2588              	.LBE1065:
 2589              	.LBE1067:
  40:./libDaisy//src/dev/mpr121.h **** 
 2590              		.loc 1 40 13 is_stmt 1 view .LVU698
 2591              	.LBB1068:
 2592              	.LBB1066:
 2593              	.LBI1066:
 269:./libDaisy//src/daisy_core.h **** 
ARM GAS  /var/folders/z2/7_lhr9dn53s9tj4s0rwtyswm0000gn/T//ccOZi2Cx.s 			page 83


 2594              		.loc 18 269 15 view .LVU699
 269:./libDaisy//src/daisy_core.h **** 
 2595              		.loc 18 269 15 is_stmt 0 view .LVU700
 2596              	.LBE1066:
 2597              	.LBE1068:
  42:./libDaisy//src/dev/mpr121.h ****         }
 2598              		.loc 1 42 13 is_stmt 1 view .LVU701
 165:MPR121.cpp    ****     i2c.Init(i2cconfig);
 2599              		.loc 14 165 5 view .LVU702
 2600              		.loc 14 165 5 is_stmt 0 view .LVU703
 2601 0022 CDF81090 		str	r9, [sp, #16]
 2602 0026 8DF818B0 		strb	fp, [sp, #24]
 2603              	.LBB1069:
 2604              	.LBI1051:
  47:./libDaisy//src/dev/mpr121.h ****     {
 2605              		.loc 1 47 17 is_stmt 1 view .LVU704
 2606              	.LBB1058:
  49:./libDaisy//src/dev/mpr121.h **** 
 2607              		.loc 1 49 9 view .LVU705
 2608              	.LBB1053:
 2609              	.LBB1054:
 2610              		.file 19 "./libDaisy//src/per/i2c.h"
   1:./libDaisy//src/per/i2c.h **** #pragma once
   2:./libDaisy//src/per/i2c.h **** #include "daisy_core.h"
   3:./libDaisy//src/per/i2c.h **** 
   4:./libDaisy//src/per/i2c.h **** namespace daisy
   5:./libDaisy//src/per/i2c.h **** {
   6:./libDaisy//src/per/i2c.h **** /** A handle for interacting with an I2C peripheral. This is a dumb
   7:./libDaisy//src/per/i2c.h ****  *  gateway that internally points to one of the four I2C peripherals
   8:./libDaisy//src/per/i2c.h ****  *  after it was initialised. It can then be copied and passed around.
   9:./libDaisy//src/per/i2c.h ****  *  Use an I2CHandle like this:
  10:./libDaisy//src/per/i2c.h ****  *  
  11:./libDaisy//src/per/i2c.h ****  *      // setup the configuration
  12:./libDaisy//src/per/i2c.h ****  *      I2CHandle::Config i2c_conf;
  13:./libDaisy//src/per/i2c.h ****  *      i2c_conf.periph = I2CHandle::Config::Peripheral::I2C_1;
  14:./libDaisy//src/per/i2c.h ****  *      i2c_conf.speed  = I2CHandle::Config::Speed::I2C_400KHZ;
  15:./libDaisy//src/per/i2c.h ****  *      i2c_conf.mode   = I2CHandle::Config::Mode::Master;
  16:./libDaisy//src/per/i2c.h ****  *      i2c_conf.pin_config.scl  = {DSY_GPIOB, 8};
  17:./libDaisy//src/per/i2c.h ****  *      i2c_conf.pin_config.sda  = {DSY_GPIOB, 9};
  18:./libDaisy//src/per/i2c.h ****  *      // initialise the peripheral
  19:./libDaisy//src/per/i2c.h ****  *      I2CHandle i2c;
  20:./libDaisy//src/per/i2c.h ****  *      i2c.Init(i2c_conf);
  21:./libDaisy//src/per/i2c.h ****  *      // now i2c points to the corresponding peripheral and can be used.
  22:./libDaisy//src/per/i2c.h ****  *      i2c.TransmitBlocking( ... );
  23:./libDaisy//src/per/i2c.h ****  */
  24:./libDaisy//src/per/i2c.h **** class I2CHandle
  25:./libDaisy//src/per/i2c.h **** {
  26:./libDaisy//src/per/i2c.h ****   public:
  27:./libDaisy//src/per/i2c.h ****     /** Contains settings for initialising an I2C interface. */
  28:./libDaisy//src/per/i2c.h ****     struct Config
 2611              		.loc 19 28 12 is_stmt 0 view .LVU706
 2612 002a 4FF0100A 		mov	r10, #16
 2613              	.LBE1054:
 2614              	.LBE1053:
  49:./libDaisy//src/dev/mpr121.h **** 
 2615              		.loc 1 49 17 view .LVU707
 2616 002e DFF8FCC2 		ldr	ip, .L116+28
ARM GAS  /var/folders/z2/7_lhr9dn53s9tj4s0rwtyswm0000gn/T//ccOZi2Cx.s 			page 84


 2617              	.LBE1058:
 2618              	.LBE1069:
 2619              	.LBB1070:
 2620              	.LBB1071:
 133:./libDaisy//src/dev/mpr121.h ****         WriteRegister(MPR121_MHDR, 0x01);
 2621              		.loc 1 133 22 view .LVU708
 2622 0032 4126     		movs	r6, #65
 117:./libDaisy//src/dev/mpr121.h **** 
 2623              		.loc 1 117 9 view .LVU709
 2624 0034 B74C     		ldr	r4, .L116+4
 2625              	.LBE1071:
 2626              	.LBE1070:
 2627              	.LBB1249:
 2628              	.LBB1059:
 2629              	.LBB1056:
 2630              	.LBB1055:
 2631              		.loc 19 28 12 view .LVU710
 2632 0036 8DF82CA0 		strb	r10, [sp, #44]
 2633 003a CDE90278 		strd	r7, r8, [sp, #8]
 2634              	.LBE1055:
 2635              	.LBE1056:
  49:./libDaisy//src/dev/mpr121.h **** 
 2636              		.loc 1 49 17 view .LVU711
 2637 003e 0FCD     		ldmia	r5!, {r0, r1, r2, r3}
 2638 0040 ACE80F00 		stmia	ip!, {r0, r1, r2, r3}
 2639 0044 2B68     		ldr	r3, [r5]
 2640 0046 6046     		mov	r0, ip
  59:./libDaisy//src/dev/mpr121.h ****     }
 2641              		.loc 1 59 50 view .LVU712
 2642 0048 07A9     		add	r1, sp, #28
  49:./libDaisy//src/dev/mpr121.h **** 
 2643              		.loc 1 49 17 view .LVU713
 2644 004a 00F81439 		strb	r3, [r0], #-20
  51:./libDaisy//src/dev/mpr121.h ****         i2c_conf.mode   = I2CHandle::Config::Mode::I2C_MASTER;
 2645              		.loc 1 51 9 is_stmt 1 view .LVU714
 2646              	.LVL133:
 2647              	.LBB1057:
 2648              	.LBI1053:
 2649              		.loc 19 28 12 view .LVU715
 2650              		.loc 19 28 12 is_stmt 0 view .LVU716
 2651              	.LBE1057:
  52:./libDaisy//src/dev/mpr121.h ****         i2c_conf.periph = config.periph;
 2652              		.loc 1 52 9 is_stmt 1 view .LVU717
  53:./libDaisy//src/dev/mpr121.h ****         i2c_conf.speed  = config.speed;
 2653              		.loc 1 53 9 view .LVU718
  54:./libDaisy//src/dev/mpr121.h **** 
 2654              		.loc 1 54 9 view .LVU719
  56:./libDaisy//src/dev/mpr121.h ****         i2c_conf.pin_config.sda = config.sda;
 2655              		.loc 1 56 9 view .LVU720
  56:./libDaisy//src/dev/mpr121.h ****         i2c_conf.pin_config.sda = config.sda;
 2656              		.loc 1 56 9 is_stmt 0 view .LVU721
 2657              	.LBE1059:
 2658              	.LBE1249:
 273:./libDaisy//src/daisy_core.h **** 
 274:./libDaisy//src/daisy_core.h ****     /** @brief checks validity of a Pin 
 275:./libDaisy//src/daisy_core.h ****      *  @retval returns true if the port is a valid hardware pin, otherwise false.
 276:./libDaisy//src/daisy_core.h ****     */
ARM GAS  /var/folders/z2/7_lhr9dn53s9tj4s0rwtyswm0000gn/T//ccOZi2Cx.s 			page 85


 277:./libDaisy//src/daisy_core.h ****     constexpr bool IsValid() const { return port != PORTX && pin < 16; }
 278:./libDaisy//src/daisy_core.h **** 
 279:./libDaisy//src/daisy_core.h ****     /** @brief comparison operator for checking equality between Pin objects */
 280:./libDaisy//src/daisy_core.h ****     constexpr bool operator==(const Pin &rhs) const
 281:./libDaisy//src/daisy_core.h ****     {
 282:./libDaisy//src/daisy_core.h ****         return (rhs.port == port) && (rhs.pin == pin);
 283:./libDaisy//src/daisy_core.h ****     }
 284:./libDaisy//src/daisy_core.h **** 
 285:./libDaisy//src/daisy_core.h ****     /** @brief comparison operator for checking inequality between Pin objects */
 286:./libDaisy//src/daisy_core.h ****     constexpr bool operator!=(const Pin &rhs) const { return !operator==(rhs); }
 287:./libDaisy//src/daisy_core.h **** 
 288:./libDaisy//src/daisy_core.h ****     /** @brief conversion operation for converting to the old-style representation
 289:./libDaisy//src/daisy_core.h ****      *         of a pin.
 290:./libDaisy//src/daisy_core.h ****      * 
 291:./libDaisy//src/daisy_core.h ****      *  This allows the new Pin type to be used in place of the older, dsy_gpio_pin
 292:./libDaisy//src/daisy_core.h ****      *  type.
 293:./libDaisy//src/daisy_core.h ****      */
 294:./libDaisy//src/daisy_core.h ****     constexpr operator dsy_gpio_pin() const
 295:./libDaisy//src/daisy_core.h ****     {
 296:./libDaisy//src/daisy_core.h ****         return dsy_gpio_pin{.port = static_cast<dsy_gpio_port>(port),
 2659              		.loc 18 296 9 is_stmt 1 view .LVU722
 2660              	.LBB1250:
 2661              	.LBB1060:
  57:./libDaisy//src/dev/mpr121.h **** 
 2662              		.loc 1 57 9 view .LVU723
  57:./libDaisy//src/dev/mpr121.h **** 
 2663              		.loc 1 57 9 is_stmt 0 view .LVU724
 2664              	.LBE1060:
 2665              	.LBE1250:
 2666              		.loc 18 296 9 is_stmt 1 view .LVU725
 2667              	.LBB1251:
 2668              	.LBB1061:
  59:./libDaisy//src/dev/mpr121.h ****     }
 2669              		.loc 1 59 9 view .LVU726
  56:./libDaisy//src/dev/mpr121.h ****         i2c_conf.pin_config.sda = config.sda;
 2670              		.loc 1 56 42 is_stmt 0 view .LVU727
 2671 004e CDE90779 		strd	r7, r9, [sp, #28]
  52:./libDaisy//src/dev/mpr121.h ****         i2c_conf.periph = config.periph;
 2672              		.loc 1 52 25 view .LVU728
 2673 0052 CDE90987 		strd	r8, r7, [sp, #36]
  59:./libDaisy//src/dev/mpr121.h ****     }
 2674              		.loc 1 59 50 view .LVU729
 2675 0056 FFF7FEFF 		bl	_ZN5daisy9I2CHandle4InitERKNS0_6ConfigE
 2676              	.LVL134:
  59:./libDaisy//src/dev/mpr121.h ****     }
 2677              		.loc 1 59 50 view .LVU730
 2678              	.LBE1061:
 2679              	.LBE1251:
 166:MPR121.cpp    **** 
 167:MPR121.cpp    ****     auto mprconfig = Mpr121I2C::Config();
 2680              		.loc 14 167 5 is_stmt 1 view .LVU731
 2681              	.LBB1252:
 2682              	.LBI1252:
  99:./libDaisy//src/dev/mpr121.h ****         {
 2683              		.loc 1 99 9 view .LVU732
 2684              	.LBB1253:
 2685              	.LBI1253:
ARM GAS  /var/folders/z2/7_lhr9dn53s9tj4s0rwtyswm0000gn/T//ccOZi2Cx.s 			page 86


  34:./libDaisy//src/dev/mpr121.h ****         {
 2686              		.loc 1 34 9 view .LVU733
 2687              	.LBB1254:
 2688              	.LBI1254:
 272:./libDaisy//src/daisy_core.h **** 
 2689              		.loc 18 272 15 view .LVU734
 272:./libDaisy//src/daisy_core.h **** 
 2690              		.loc 18 272 15 is_stmt 0 view .LVU735
 2691              	.LBE1254:
 2692              	.LBB1255:
 2693              	.LBI1255:
 272:./libDaisy//src/daisy_core.h **** 
 2694              		.loc 18 272 15 is_stmt 1 view .LVU736
 272:./libDaisy//src/daisy_core.h **** 
 2695              		.loc 18 272 15 is_stmt 0 view .LVU737
 2696              	.LBE1255:
 2697              	.LBE1253:
 2698              	.LBE1252:
  36:./libDaisy//src/dev/mpr121.h ****             speed  = I2CHandle::Config::Speed::I2C_400KHZ;
 2699              		.loc 1 36 13 is_stmt 1 view .LVU738
  37:./libDaisy//src/dev/mpr121.h **** 
 2700              		.loc 1 37 13 view .LVU739
  39:./libDaisy//src/dev/mpr121.h ****             sda = Pin(PORTB, 9);
 2701              		.loc 1 39 13 view .LVU740
 2702              	.LBB1260:
 2703              	.LBB1258:
 2704              	.LBB1256:
 2705              	.LBI1256:
 269:./libDaisy//src/daisy_core.h **** 
 2706              		.loc 18 269 15 view .LVU741
 269:./libDaisy//src/daisy_core.h **** 
 2707              		.loc 18 269 15 is_stmt 0 view .LVU742
 2708              	.LBE1256:
 2709              	.LBE1258:
 2710              	.LBE1260:
  40:./libDaisy//src/dev/mpr121.h **** 
 2711              		.loc 1 40 13 is_stmt 1 view .LVU743
 2712              	.LBB1261:
 2713              	.LBB1259:
 2714              	.LBB1257:
 2715              	.LBI1257:
 269:./libDaisy//src/daisy_core.h **** 
 2716              		.loc 18 269 15 view .LVU744
 269:./libDaisy//src/daisy_core.h **** 
 2717              		.loc 18 269 15 is_stmt 0 view .LVU745
 2718              	.LBE1257:
 2719              	.LBE1259:
 2720              	.LBE1261:
  42:./libDaisy//src/dev/mpr121.h ****         }
 2721              		.loc 1 42 13 is_stmt 1 view .LVU746
 168:MPR121.cpp    ****     touch.Init(mprconfig);
 2722              		.loc 14 168 5 view .LVU747
 2723              	.LBB1262:
 2724              	.LBI1070:
 115:./libDaisy//src/dev/mpr121.h ****     {
 2725              		.loc 1 115 12 view .LVU748
 2726              	.LBB1246:
ARM GAS  /var/folders/z2/7_lhr9dn53s9tj4s0rwtyswm0000gn/T//ccOZi2Cx.s 			page 87


 117:./libDaisy//src/dev/mpr121.h **** 
 2727              		.loc 1 117 9 is_stmt 0 view .LVU749
 2728 005a 40F20C63 		movw	r3, #1548
 2729 005e A646     		mov	lr, r4
 2730 0060 84F810B0 		strb	fp, [r4, #16]
 2731 0064 C4F80890 		str	r9, [r4, #8]
 2732              	.LBB1072:
 2733              	.LBB1073:
  49:./libDaisy//src/dev/mpr121.h **** 
 2734              		.loc 1 49 17 view .LVU750
 2735 0068 04F11C0C 		add	ip, r4, #28
 2736              	.LBE1073:
 2737              	.LBE1072:
 117:./libDaisy//src/dev/mpr121.h **** 
 2738              		.loc 1 117 9 view .LVU751
 2739 006c A382     		strh	r3, [r4, #20]	@ movhi
 2740              	.LVL135:
 2741              	.LBB1082:
 2742              	.LBB1077:
 2743              	.LBB1074:
 2744              	.LBB1075:
 2745              		.loc 19 28 12 view .LVU752
 2746 006e 8DF82CA0 		strb	r10, [sp, #44]
 2747 0072 0DF1080A 		add	r10, sp, #8
 2748              	.LBE1075:
 2749              	.LBE1074:
 2750              	.LBE1077:
 2751              	.LBE1082:
 117:./libDaisy//src/dev/mpr121.h **** 
 2752              		.loc 1 117 9 view .LVU753
 2753 0076 C4E90078 		strd	r7, r8, [r4]
 2754 007a BEE80F00 		ldmia	lr!, {r0, r1, r2, r3}
 2755              	.LBB1083:
 2756              	.LBB1078:
  53:./libDaisy//src/dev/mpr121.h ****         i2c_conf.speed  = config.speed;
 2757              		.loc 1 53 25 view .LVU754
 2758 007e CDE90779 		strd	r7, r9, [sp, #28]
 2759 0082 DEF800E0 		ldr	lr, [lr]
  49:./libDaisy//src/dev/mpr121.h **** 
 2760              		.loc 1 49 17 view .LVU755
 2761 0086 D146     		mov	r9, r10
 2762 0088 AAE80F00 		stmia	r10!, {r0, r1, r2, r3}
 2763 008c C5F800E0 		str	lr, [r5]
 2764              	.LBE1078:
 2765              	.LBI1072:
  47:./libDaisy//src/dev/mpr121.h ****     {
 2766              		.loc 1 47 17 is_stmt 1 view .LVU756
 2767              	.LBB1079:
  49:./libDaisy//src/dev/mpr121.h **** 
 2768              		.loc 1 49 9 view .LVU757
  49:./libDaisy//src/dev/mpr121.h **** 
 2769              		.loc 1 49 17 is_stmt 0 view .LVU758
 2770 0090 B9E80F00 		ldmia	r9!, {r0, r1, r2, r3}
 2771 0094 ACE80F00 		stmia	ip!, {r0, r1, r2, r3}
  59:./libDaisy//src/dev/mpr121.h ****     }
 2772              		.loc 1 59 50 view .LVU759
 2773 0098 07A9     		add	r1, sp, #28
ARM GAS  /var/folders/z2/7_lhr9dn53s9tj4s0rwtyswm0000gn/T//ccOZi2Cx.s 			page 88


  49:./libDaisy//src/dev/mpr121.h **** 
 2774              		.loc 1 49 17 view .LVU760
 2775 009a 8CF800E0 		strb	lr, [ip]
  51:./libDaisy//src/dev/mpr121.h ****         i2c_conf.mode   = I2CHandle::Config::Mode::I2C_MASTER;
 2776              		.loc 1 51 9 is_stmt 1 view .LVU761
 2777              	.LVL136:
 2778              	.LBB1076:
 2779              	.LBI1074:
 2780              		.loc 19 28 12 view .LVU762
 2781              		.loc 19 28 12 is_stmt 0 view .LVU763
 2782              	.LBE1076:
  52:./libDaisy//src/dev/mpr121.h ****         i2c_conf.periph = config.periph;
 2783              		.loc 1 52 9 is_stmt 1 view .LVU764
  53:./libDaisy//src/dev/mpr121.h ****         i2c_conf.speed  = config.speed;
 2784              		.loc 1 53 9 view .LVU765
  54:./libDaisy//src/dev/mpr121.h **** 
 2785              		.loc 1 54 9 view .LVU766
  56:./libDaisy//src/dev/mpr121.h ****         i2c_conf.pin_config.sda = config.sda;
 2786              		.loc 1 56 9 view .LVU767
  56:./libDaisy//src/dev/mpr121.h ****         i2c_conf.pin_config.sda = config.sda;
 2787              		.loc 1 56 9 is_stmt 0 view .LVU768
 2788              	.LBE1079:
 2789              	.LBE1083:
 2790              	.LBE1246:
 2791              	.LBE1262:
 2792              		.loc 18 296 9 is_stmt 1 view .LVU769
 2793              	.LBB1263:
 2794              	.LBB1247:
 2795              	.LBB1084:
 2796              	.LBB1080:
  57:./libDaisy//src/dev/mpr121.h **** 
 2797              		.loc 1 57 9 view .LVU770
  57:./libDaisy//src/dev/mpr121.h **** 
 2798              		.loc 1 57 9 is_stmt 0 view .LVU771
 2799              	.LBE1080:
 2800              	.LBE1084:
 2801              	.LBE1247:
 2802              	.LBE1263:
 2803              		.loc 18 296 9 is_stmt 1 view .LVU772
 2804              	.LBB1264:
 2805              	.LBB1248:
 2806              	.LBB1085:
 2807              	.LBB1081:
  59:./libDaisy//src/dev/mpr121.h ****     }
 2808              		.loc 1 59 9 view .LVU773
  59:./libDaisy//src/dev/mpr121.h ****     }
 2809              		.loc 1 59 50 is_stmt 0 view .LVU774
 2810 009e 04F11800 		add	r0, r4, #24
  52:./libDaisy//src/dev/mpr121.h ****         i2c_conf.periph = config.periph;
 2811              		.loc 1 52 25 view .LVU775
 2812 00a2 CDE90987 		strd	r8, r7, [sp, #36]
  59:./libDaisy//src/dev/mpr121.h ****     }
 2813              		.loc 1 59 50 view .LVU776
 2814 00a6 FFF7FEFF 		bl	_ZN5daisy9I2CHandle4InitERKNS0_6ConfigE
 2815              	.LVL137:
  59:./libDaisy//src/dev/mpr121.h ****     }
 2816              		.loc 1 59 50 view .LVU777
ARM GAS  /var/folders/z2/7_lhr9dn53s9tj4s0rwtyswm0000gn/T//ccOZi2Cx.s 			page 89


 2817              	.LBE1081:
 2818              	.LBE1085:
 2819              	.LBB1086:
 2820              	.LBI1086:
 2821              		.loc 1 343 10 is_stmt 1 view .LVU778
 2822              	.LBB1087:
 2823              		.loc 1 343 55 is_stmt 0 view .LVU779
 2824 00aa 94F83030 		ldrb	r3, [r4, #48]	@ zero_extendqisi2
 2825              	.LBE1087:
 2826              	.LBE1086:
 122:./libDaisy//src/dev/mpr121.h ****         System::Delay(1);
 2827              		.loc 1 122 22 view .LVU780
 2828 00ae 8021     		movs	r1, #128
 2829 00b0 6322     		movs	r2, #99
 2830              	.LBB1090:
 2831              	.LBB1088:
 2832              		.loc 1 343 55 view .LVU781
 2833 00b2 B842     		cmp	r0, r7
 2834 00b4 18BF     		it	ne
 2835 00b6 43F00103 		orrne	r3, r3, #1
 2836              	.LBE1088:
 2837              	.LBE1090:
 122:./libDaisy//src/dev/mpr121.h ****         System::Delay(1);
 2838              		.loc 1 122 22 view .LVU782
 2839 00ba 2046     		mov	r0, r4
 2840              	.LVL138:
 2841              	.LBB1091:
 2842              	.LBB1089:
 2843              		.loc 1 343 55 view .LVU783
 2844 00bc 84F83030 		strb	r3, [r4, #48]
 2845              	.LVL139:
 2846              		.loc 1 343 55 view .LVU784
 2847              	.LBE1089:
 2848              	.LBE1091:
 122:./libDaisy//src/dev/mpr121.h ****         System::Delay(1);
 2849              		.loc 1 122 22 view .LVU785
 2850 00c0 FFF7FEFF 		bl	_ZN5daisy6Mpr121INS_18Mpr121I2CTransportEE13WriteRegisterEhh
 2851              	.LVL140:
 123:./libDaisy//src/dev/mpr121.h **** 
 2852              		.loc 1 123 22 view .LVU786
 2853 00c4 4046     		mov	r0, r8
 2854 00c6 FFF7FEFF 		bl	_ZN5daisy6System5DelayEm
 2855              	.LVL141:
 125:./libDaisy//src/dev/mpr121.h **** 
 2856              		.loc 1 125 22 view .LVU787
 2857 00ca 3A46     		mov	r2, r7
 2858 00cc 5E21     		movs	r1, #94
 2859 00ce 2046     		mov	r0, r4
 2860 00d0 FFF7FEFF 		bl	_ZN5daisy6Mpr121INS_18Mpr121I2CTransportEE13WriteRegisterEhh
 2861              	.LVL142:
 133:./libDaisy//src/dev/mpr121.h ****         WriteRegister(MPR121_MHDR, 0x01);
 2862              		.loc 1 133 22 view .LVU788
 2863 00d4 94F814A0 		ldrb	r10, [r4, #20]	@ zero_extendqisi2
 2864 00d8 94F81590 		ldrb	r9, [r4, #21]	@ zero_extendqisi2
 2865              	.LVL143:
 2866              	.LBB1092:
 2867              	.LBI1092:
ARM GAS  /var/folders/z2/7_lhr9dn53s9tj4s0rwtyswm0000gn/T//ccOZi2Cx.s 			page 90


 177:./libDaisy//src/dev/mpr121.h ****     {
 2868              		.loc 1 177 10 is_stmt 1 view .LVU789
 2869              	.LBB1093:
 180:./libDaisy//src/dev/mpr121.h ****         {
 2870              		.loc 1 180 30 view .LVU790
 2871              	.L110:
 2872              	.LBB1094:
 2873              	.LBI1094:
 257:./libDaisy//src/dev/mpr121.h ****     {
 2874              		.loc 1 257 10 view .LVU791
 2875              	.LBB1095:
 2876              	.LBB1096:
 2877              	.LBB1097:
  66:./libDaisy//src/dev/mpr121.h ****     }
 2878              		.loc 1 66 40 is_stmt 0 view .LVU792
 2879 00dc 0A25     		movs	r5, #10
 2880              	.LBE1097:
 2881              	.LBE1096:
 264:./libDaisy//src/dev/mpr121.h **** 
 2882              		.loc 1 264 17 view .LVU793
 2883 00de 4FF00008 		mov	r8, #0
 2884 00e2 5E27     		movs	r7, #94
 2885              	.LBB1100:
 2886              	.LBB1098:
  66:./libDaisy//src/dev/mpr121.h ****     }
 2887              		.loc 1 66 40 view .LVU794
 2888 00e4 0123     		movs	r3, #1
 2889 00e6 07AA     		add	r2, sp, #28
 2890 00e8 94F82C10 		ldrb	r1, [r4, #44]	@ zero_extendqisi2
 2891 00ec 0095     		str	r5, [sp]
 2892 00ee 8A48     		ldr	r0, .L116+8
 2893              	.LBE1098:
 2894              	.LBE1100:
 264:./libDaisy//src/dev/mpr121.h **** 
 2895              		.loc 1 264 17 view .LVU795
 2896 00f0 8DF81D80 		strb	r8, [sp, #29]
 2897 00f4 8DF81C70 		strb	r7, [sp, #28]
 2898              	.LVL144:
 2899              	.LBB1101:
 2900              	.LBI1096:
  63:./libDaisy//src/dev/mpr121.h ****     {
 2901              		.loc 1 63 10 is_stmt 1 view .LVU796
 2902              	.LBB1099:
  65:./libDaisy//src/dev/mpr121.h ****                != i2c_.TransmitBlocking(config_.dev_addr, data, size, 10);
 2903              		.loc 1 65 9 view .LVU797
  66:./libDaisy//src/dev/mpr121.h ****     }
 2904              		.loc 1 66 40 is_stmt 0 view .LVU798
 2905 00f8 FFF7FEFF 		bl	_ZN5daisy9I2CHandle16TransmitBlockingEtPhtm
 2906              	.LVL145:
  66:./libDaisy//src/dev/mpr121.h ****     }
 2907              		.loc 1 66 40 view .LVU799
 2908              	.LBE1099:
 2909              	.LBE1101:
 2910              	.LBB1102:
 2911              	.LBI1102:
 2912              		.loc 1 343 10 is_stmt 1 view .LVU800
 2913              	.LBB1103:
ARM GAS  /var/folders/z2/7_lhr9dn53s9tj4s0rwtyswm0000gn/T//ccOZi2Cx.s 			page 91


 2914              		.loc 1 343 55 is_stmt 0 view .LVU801
 2915 00fc 94F83010 		ldrb	r1, [r4, #48]	@ zero_extendqisi2
 2916              	.LBE1103:
 2917              	.LBE1102:
 2918              	.LBB1106:
 2919              	.LBB1107:
  73:./libDaisy//src/dev/mpr121.h ****     }
 2920              		.loc 1 73 39 view .LVU802
 2921 0100 0123     		movs	r3, #1
 2922 0102 02AA     		add	r2, sp, #8
 2923 0104 0095     		str	r5, [sp]
 2924              	.LBE1107:
 2925              	.LBE1106:
 2926              	.LBB1110:
 2927              	.LBB1104:
 2928              		.loc 1 343 55 view .LVU803
 2929 0106 4045     		cmp	r0, r8
 2930 0108 18BF     		it	ne
 2931 010a 41F00101 		orrne	r1, r1, #1
 2932              	.LBE1104:
 2933              	.LBE1110:
 2934              	.LBB1111:
 2935              	.LBB1108:
  73:./libDaisy//src/dev/mpr121.h ****     }
 2936              		.loc 1 73 39 view .LVU804
 2937 010e 8248     		ldr	r0, .L116+8
 2938              	.LVL146:
  73:./libDaisy//src/dev/mpr121.h ****     }
 2939              		.loc 1 73 39 view .LVU805
 2940              	.LBE1108:
 2941              	.LBE1111:
 2942              	.LBB1112:
 2943              	.LBB1105:
 2944              		.loc 1 343 55 view .LVU806
 2945 0110 84F83010 		strb	r1, [r4, #48]
 2946              	.LVL147:
 2947              		.loc 1 343 55 view .LVU807
 2948              	.LBE1105:
 2949              	.LBE1112:
 2950              	.LBB1113:
 2951              	.LBI1106:
  70:./libDaisy//src/dev/mpr121.h ****     {
 2952              		.loc 1 70 10 is_stmt 1 view .LVU808
 2953              	.LBB1109:
  72:./libDaisy//src/dev/mpr121.h ****                != i2c_.ReceiveBlocking(config_.dev_addr, data, size, 10);
 2954              		.loc 1 72 9 view .LVU809
  73:./libDaisy//src/dev/mpr121.h ****     }
 2955              		.loc 1 73 39 is_stmt 0 view .LVU810
 2956 0114 94F82C10 		ldrb	r1, [r4, #44]	@ zero_extendqisi2
 2957 0118 FFF7FEFF 		bl	_ZN5daisy9I2CHandle15ReceiveBlockingEtPhtm
 2958              	.LVL148:
  73:./libDaisy//src/dev/mpr121.h ****     }
 2959              		.loc 1 73 39 view .LVU811
 2960              	.LBE1109:
 2961              	.LBE1113:
 2962              	.LBB1114:
 2963              	.LBI1114:
ARM GAS  /var/folders/z2/7_lhr9dn53s9tj4s0rwtyswm0000gn/T//ccOZi2Cx.s 			page 92


 2964              		.loc 1 343 10 is_stmt 1 view .LVU812
 2965              	.LBB1115:
 2966              		.loc 1 343 55 is_stmt 0 view .LVU813
 2967 011c 94F83010 		ldrb	r1, [r4, #48]	@ zero_extendqisi2
 2968              	.LBE1115:
 2969              	.LBE1114:
 2970              	.LBB1118:
 2971              	.LBB1119:
  66:./libDaisy//src/dev/mpr121.h ****     }
 2972              		.loc 1 66 40 view .LVU814
 2973 0120 0223     		movs	r3, #2
 2974 0122 07AA     		add	r2, sp, #28
 2975              	.LBE1119:
 2976              	.LBE1118:
 2977              	.LBB1122:
 2978              	.LBB1116:
 2979              		.loc 1 343 55 view .LVU815
 2980 0124 4045     		cmp	r0, r8
 2981 0126 18BF     		it	ne
 2982 0128 41F00101 		orrne	r1, r1, #1
 2983              	.LBE1116:
 2984              	.LBE1122:
 2985              	.LBB1123:
 2986              	.LBB1120:
  66:./libDaisy//src/dev/mpr121.h ****     }
 2987              		.loc 1 66 40 view .LVU816
 2988 012c 0095     		str	r5, [sp]
 2989 012e 7A48     		ldr	r0, .L116+8
 2990              	.LVL149:
  66:./libDaisy//src/dev/mpr121.h ****     }
 2991              		.loc 1 66 40 view .LVU817
 2992              	.LBE1120:
 2993              	.LBE1123:
 2994              	.LBB1124:
 2995              	.LBB1117:
 2996              		.loc 1 343 55 view .LVU818
 2997 0130 84F83010 		strb	r1, [r4, #48]
 2998              	.LVL150:
 2999              		.loc 1 343 55 view .LVU819
 3000              	.LBE1117:
 3001              	.LBE1124:
 3002              	.LBB1125:
 3003              	.LBI1118:
  63:./libDaisy//src/dev/mpr121.h ****     {
 3004              		.loc 1 63 10 is_stmt 1 view .LVU820
 3005              	.LBB1121:
  65:./libDaisy//src/dev/mpr121.h ****                != i2c_.TransmitBlocking(config_.dev_addr, data, size, 10);
 3006              		.loc 1 65 9 view .LVU821
  66:./libDaisy//src/dev/mpr121.h ****     }
 3007              		.loc 1 66 40 is_stmt 0 view .LVU822
 3008 0134 94F82C10 		ldrb	r1, [r4, #44]	@ zero_extendqisi2
 3009 0138 FFF7FEFF 		bl	_ZN5daisy9I2CHandle16TransmitBlockingEtPhtm
 3010              	.LVL151:
  66:./libDaisy//src/dev/mpr121.h ****     }
 3011              		.loc 1 66 40 view .LVU823
 3012              	.LBE1121:
 3013              	.LBE1125:
ARM GAS  /var/folders/z2/7_lhr9dn53s9tj4s0rwtyswm0000gn/T//ccOZi2Cx.s 			page 93


 3014              	.LBB1126:
 3015              	.LBI1126:
 3016              		.loc 1 343 10 is_stmt 1 view .LVU824
 3017              	.LBB1127:
 3018              		.loc 1 343 55 is_stmt 0 view .LVU825
 3019 013c 94F83010 		ldrb	r1, [r4, #48]	@ zero_extendqisi2
 3020              	.LBE1127:
 3021              	.LBE1126:
 3022              	.LBB1130:
 3023              	.LBB1131:
  66:./libDaisy//src/dev/mpr121.h ****     }
 3024              		.loc 1 66 40 view .LVU826
 3025 0140 0223     		movs	r3, #2
 3026 0142 07AA     		add	r2, sp, #28
 3027              	.LBE1131:
 3028              	.LBE1130:
 3029              	.LBB1135:
 3030              	.LBB1128:
 3031              		.loc 1 343 55 view .LVU827
 3032 0144 4045     		cmp	r0, r8
 3033 0146 18BF     		it	ne
 3034 0148 41F00101 		orrne	r1, r1, #1
 3035              	.LBE1128:
 3036              	.LBE1135:
 3037              	.LBB1136:
 3038              	.LBB1132:
  66:./libDaisy//src/dev/mpr121.h ****     }
 3039              		.loc 1 66 40 view .LVU828
 3040 014c 0095     		str	r5, [sp]
 3041 014e 7248     		ldr	r0, .L116+8
 3042              	.LVL152:
  66:./libDaisy//src/dev/mpr121.h ****     }
 3043              		.loc 1 66 40 view .LVU829
 3044              	.LBE1132:
 3045              	.LBE1136:
 3046              	.LBB1137:
 3047              	.LBB1129:
 3048              		.loc 1 343 55 view .LVU830
 3049 0150 84F83010 		strb	r1, [r4, #48]
 3050              	.LVL153:
 3051              		.loc 1 343 55 view .LVU831
 3052              	.LBE1129:
 3053              	.LBE1137:
 3054              	.LBB1138:
 3055              	.LBI1130:
  63:./libDaisy//src/dev/mpr121.h ****     {
 3056              		.loc 1 63 10 is_stmt 1 view .LVU832
 3057              	.LBB1133:
  65:./libDaisy//src/dev/mpr121.h ****                != i2c_.TransmitBlocking(config_.dev_addr, data, size, 10);
 3058              		.loc 1 65 9 view .LVU833
  66:./libDaisy//src/dev/mpr121.h ****     }
 3059              		.loc 1 66 40 is_stmt 0 view .LVU834
 3060 0154 94F82C10 		ldrb	r1, [r4, #44]	@ zero_extendqisi2
 3061              	.LBE1133:
 3062              	.LBE1138:
 281:./libDaisy//src/dev/mpr121.h ****         buff[1] = value;
 3063              		.loc 1 281 17 view .LVU835
ARM GAS  /var/folders/z2/7_lhr9dn53s9tj4s0rwtyswm0000gn/T//ccOZi2Cx.s 			page 94


 3064 0158 8DF81C60 		strb	r6, [sp, #28]
 282:./libDaisy//src/dev/mpr121.h ****         SetTransportErr(transport_.Write(buff, 2));
 3065              		.loc 1 282 17 view .LVU836
 3066 015c 8DF81DA0 		strb	r10, [sp, #29]
 3067              	.LBB1139:
 3068              	.LBB1134:
  66:./libDaisy//src/dev/mpr121.h ****     }
 3069              		.loc 1 66 40 view .LVU837
 3070 0160 FFF7FEFF 		bl	_ZN5daisy9I2CHandle16TransmitBlockingEtPhtm
 3071              	.LVL154:
  66:./libDaisy//src/dev/mpr121.h ****     }
 3072              		.loc 1 66 40 view .LVU838
 3073              	.LBE1134:
 3074              	.LBE1139:
 3075              	.LBB1140:
 3076              	.LBI1140:
 3077              		.loc 1 343 10 is_stmt 1 view .LVU839
 3078              	.LBB1141:
 3079              		.loc 1 343 55 is_stmt 0 view .LVU840
 3080 0164 94F830C0 		ldrb	ip, [r4, #48]	@ zero_extendqisi2
 3081              	.LBE1141:
 3082              	.LBE1140:
 3083              	.LBB1144:
 3084              	.LBB1145:
  66:./libDaisy//src/dev/mpr121.h ****     }
 3085              		.loc 1 66 40 view .LVU841
 3086 0168 0223     		movs	r3, #2
 3087              	.LBE1145:
 3088              	.LBE1144:
 289:./libDaisy//src/dev/mpr121.h ****             SetTransportErr(transport_.Write(buff, 2));
 3089              		.loc 1 289 21 view .LVU842
 3090 016a 9DF80820 		ldrb	r2, [sp, #8]	@ zero_extendqisi2
 3091              	.LBB1150:
 3092              	.LBB1142:
 3093              		.loc 1 343 55 view .LVU843
 3094 016e 4045     		cmp	r0, r8
 3095 0170 18BF     		it	ne
 3096 0172 4CF0010C 		orrne	ip, ip, #1
 3097              	.LBE1142:
 3098              	.LBE1150:
 3099              	.LBB1151:
 3100              	.LBB1146:
  66:./libDaisy//src/dev/mpr121.h ****     }
 3101              		.loc 1 66 40 view .LVU844
 3102 0176 94F82C10 		ldrb	r1, [r4, #44]	@ zero_extendqisi2
 3103 017a 0095     		str	r5, [sp]
 3104              	.LBE1146:
 3105              	.LBE1151:
 289:./libDaisy//src/dev/mpr121.h ****             SetTransportErr(transport_.Write(buff, 2));
 3106              		.loc 1 289 21 view .LVU845
 3107 017c 8DF81D20 		strb	r2, [sp, #29]
 3108              	.LBB1152:
 3109              	.LBB1147:
  66:./libDaisy//src/dev/mpr121.h ****     }
 3110              		.loc 1 66 40 view .LVU846
 3111 0180 07AA     		add	r2, sp, #28
 3112 0182 6548     		ldr	r0, .L116+8
ARM GAS  /var/folders/z2/7_lhr9dn53s9tj4s0rwtyswm0000gn/T//ccOZi2Cx.s 			page 95


 3113              	.LVL155:
  66:./libDaisy//src/dev/mpr121.h ****     }
 3114              		.loc 1 66 40 view .LVU847
 3115              	.LBE1147:
 3116              	.LBE1152:
 3117              	.LBB1153:
 3118              	.LBB1143:
 3119              		.loc 1 343 55 view .LVU848
 3120 0184 84F830C0 		strb	ip, [r4, #48]
 3121              	.LVL156:
 3122              		.loc 1 343 55 view .LVU849
 3123              	.LBE1143:
 3124              	.LBE1153:
 3125              	.LBB1154:
 3126              	.LBI1144:
  63:./libDaisy//src/dev/mpr121.h ****     {
 3127              		.loc 1 63 10 is_stmt 1 view .LVU850
 3128              	.LBB1148:
  65:./libDaisy//src/dev/mpr121.h ****                != i2c_.TransmitBlocking(config_.dev_addr, data, size, 10);
 3129              		.loc 1 65 9 view .LVU851
 3130              	.LBE1148:
 3131              	.LBE1154:
 288:./libDaisy//src/dev/mpr121.h ****             buff[1] = ecr_backup;
 3132              		.loc 1 288 21 is_stmt 0 view .LVU852
 3133 0188 8DF81C70 		strb	r7, [sp, #28]
 3134              	.LBB1155:
 3135              	.LBB1149:
  66:./libDaisy//src/dev/mpr121.h ****     }
 3136              		.loc 1 66 40 view .LVU853
 3137 018c FFF7FEFF 		bl	_ZN5daisy9I2CHandle16TransmitBlockingEtPhtm
 3138              	.LVL157:
  66:./libDaisy//src/dev/mpr121.h ****     }
 3139              		.loc 1 66 40 view .LVU854
 3140              	.LBE1149:
 3141              	.LBE1155:
 3142              	.LBB1156:
 3143              	.LBI1156:
 3144              		.loc 1 343 10 is_stmt 1 view .LVU855
 3145              	.LBB1157:
 3146              		.loc 1 343 55 is_stmt 0 view .LVU856
 3147 0190 94F83010 		ldrb	r1, [r4, #48]	@ zero_extendqisi2
 3148              	.LBE1157:
 3149              	.LBE1156:
 3150              	.LBE1095:
 3151              	.LBE1094:
 3152              	.LBB1164:
 3153              	.LBB1165:
 3154              	.LBB1166:
 3155              	.LBB1167:
  66:./libDaisy//src/dev/mpr121.h ****     }
 3156              		.loc 1 66 40 view .LVU857
 3157 0194 0123     		movs	r3, #1
 3158 0196 07AA     		add	r2, sp, #28
 3159 0198 0095     		str	r5, [sp]
 3160              	.LBE1167:
 3161              	.LBE1166:
 3162              	.LBE1165:
ARM GAS  /var/folders/z2/7_lhr9dn53s9tj4s0rwtyswm0000gn/T//ccOZi2Cx.s 			page 96


 3163              	.LBE1164:
 3164              	.LBB1235:
 3165              	.LBB1162:
 3166              	.LBB1160:
 3167              	.LBB1158:
 3168              		.loc 1 343 55 view .LVU858
 3169 019a 4045     		cmp	r0, r8
 3170 019c 18BF     		it	ne
 3171 019e 41F00101 		orrne	r1, r1, #1
 3172              	.LBE1158:
 3173              	.LBE1160:
 3174              	.LBE1162:
 3175              	.LBE1235:
 3176              	.LBB1236:
 3177              	.LBB1230:
 3178              	.LBB1171:
 3179              	.LBB1168:
  66:./libDaisy//src/dev/mpr121.h ****     }
 3180              		.loc 1 66 40 view .LVU859
 3181 01a2 5D48     		ldr	r0, .L116+8
 3182              	.LVL158:
  66:./libDaisy//src/dev/mpr121.h ****     }
 3183              		.loc 1 66 40 view .LVU860
 3184              	.LBE1168:
 3185              	.LBE1171:
 264:./libDaisy//src/dev/mpr121.h **** 
 3186              		.loc 1 264 17 view .LVU861
 3187 01a4 8DF81D80 		strb	r8, [sp, #29]
 3188              	.LBE1230:
 3189              	.LBE1236:
 3190              	.LBB1237:
 3191              	.LBB1163:
 3192              	.LBB1161:
 3193              	.LBB1159:
 3194              		.loc 1 343 55 view .LVU862
 3195 01a8 84F83010 		strb	r1, [r4, #48]
 3196              	.LVL159:
 3197              		.loc 1 343 55 view .LVU863
 3198              	.LBE1159:
 3199              	.LBE1161:
 3200              	.LBE1163:
 3201              	.LBE1237:
 3202              	.LBB1238:
 3203              	.LBI1164:
 257:./libDaisy//src/dev/mpr121.h ****     {
 3204              		.loc 1 257 10 is_stmt 1 view .LVU864
 3205              	.LBB1231:
 3206              	.LBB1172:
 3207              	.LBI1166:
  63:./libDaisy//src/dev/mpr121.h ****     {
 3208              		.loc 1 63 10 view .LVU865
 3209              	.LBB1169:
  65:./libDaisy//src/dev/mpr121.h ****                != i2c_.TransmitBlocking(config_.dev_addr, data, size, 10);
 3210              		.loc 1 65 9 view .LVU866
  66:./libDaisy//src/dev/mpr121.h ****     }
 3211              		.loc 1 66 40 is_stmt 0 view .LVU867
 3212 01ac 94F82C10 		ldrb	r1, [r4, #44]	@ zero_extendqisi2
ARM GAS  /var/folders/z2/7_lhr9dn53s9tj4s0rwtyswm0000gn/T//ccOZi2Cx.s 			page 97


 3213              	.LBE1169:
 3214              	.LBE1172:
 264:./libDaisy//src/dev/mpr121.h **** 
 3215              		.loc 1 264 17 view .LVU868
 3216 01b0 8DF81C70 		strb	r7, [sp, #28]
 3217              	.LBB1173:
 3218              	.LBB1170:
  66:./libDaisy//src/dev/mpr121.h ****     }
 3219              		.loc 1 66 40 view .LVU869
 3220 01b4 FFF7FEFF 		bl	_ZN5daisy9I2CHandle16TransmitBlockingEtPhtm
 3221              	.LVL160:
  66:./libDaisy//src/dev/mpr121.h ****     }
 3222              		.loc 1 66 40 view .LVU870
 3223              	.LBE1170:
 3224              	.LBE1173:
 3225              	.LBB1174:
 3226              	.LBI1174:
 3227              		.loc 1 343 10 is_stmt 1 view .LVU871
 3228              	.LBB1175:
 3229              		.loc 1 343 55 is_stmt 0 view .LVU872
 3230 01b8 94F83010 		ldrb	r1, [r4, #48]	@ zero_extendqisi2
 3231              	.LBE1175:
 3232              	.LBE1174:
 3233              	.LBB1178:
 3234              	.LBB1179:
  73:./libDaisy//src/dev/mpr121.h ****     }
 3235              		.loc 1 73 39 view .LVU873
 3236 01bc 0123     		movs	r3, #1
 3237 01be 02AA     		add	r2, sp, #8
 3238 01c0 0095     		str	r5, [sp]
 3239              	.LBE1179:
 3240              	.LBE1178:
 3241              	.LBB1182:
 3242              	.LBB1176:
 3243              		.loc 1 343 55 view .LVU874
 3244 01c2 4045     		cmp	r0, r8
 3245 01c4 18BF     		it	ne
 3246 01c6 41F00101 		orrne	r1, r1, #1
 3247              	.LBE1176:
 3248              	.LBE1182:
 3249              	.LBB1183:
 3250              	.LBB1180:
  73:./libDaisy//src/dev/mpr121.h ****     }
 3251              		.loc 1 73 39 view .LVU875
 3252 01ca 5348     		ldr	r0, .L116+8
 3253              	.LVL161:
  73:./libDaisy//src/dev/mpr121.h ****     }
 3254              		.loc 1 73 39 view .LVU876
 3255              	.LBE1180:
 3256              	.LBE1183:
 3257              	.LBB1184:
 3258              	.LBB1177:
 3259              		.loc 1 343 55 view .LVU877
 3260 01cc 84F83010 		strb	r1, [r4, #48]
 3261              	.LVL162:
 3262              		.loc 1 343 55 view .LVU878
 3263              	.LBE1177:
ARM GAS  /var/folders/z2/7_lhr9dn53s9tj4s0rwtyswm0000gn/T//ccOZi2Cx.s 			page 98


 3264              	.LBE1184:
 3265              	.LBB1185:
 3266              	.LBI1178:
  70:./libDaisy//src/dev/mpr121.h ****     {
 3267              		.loc 1 70 10 is_stmt 1 view .LVU879
 3268              	.LBB1181:
  72:./libDaisy//src/dev/mpr121.h ****                != i2c_.ReceiveBlocking(config_.dev_addr, data, size, 10);
 3269              		.loc 1 72 9 view .LVU880
  73:./libDaisy//src/dev/mpr121.h ****     }
 3270              		.loc 1 73 39 is_stmt 0 view .LVU881
 3271 01d0 94F82C10 		ldrb	r1, [r4, #44]	@ zero_extendqisi2
 3272 01d4 FFF7FEFF 		bl	_ZN5daisy9I2CHandle15ReceiveBlockingEtPhtm
 3273              	.LVL163:
  73:./libDaisy//src/dev/mpr121.h ****     }
 3274              		.loc 1 73 39 view .LVU882
 3275              	.LBE1181:
 3276              	.LBE1185:
 3277              	.LBB1186:
 3278              	.LBI1186:
 3279              		.loc 1 343 10 is_stmt 1 view .LVU883
 3280              	.LBB1187:
 3281              		.loc 1 343 55 is_stmt 0 view .LVU884
 3282 01d8 94F83010 		ldrb	r1, [r4, #48]	@ zero_extendqisi2
 3283              	.LBE1187:
 3284              	.LBE1186:
 3285              	.LBB1190:
 3286              	.LBB1191:
  66:./libDaisy//src/dev/mpr121.h ****     }
 3287              		.loc 1 66 40 view .LVU885
 3288 01dc 0223     		movs	r3, #2
 3289 01de 07AA     		add	r2, sp, #28
 3290              	.LBE1191:
 3291              	.LBE1190:
 3292              	.LBB1194:
 3293              	.LBB1188:
 3294              		.loc 1 343 55 view .LVU886
 3295 01e0 4045     		cmp	r0, r8
 3296 01e2 18BF     		it	ne
 3297 01e4 41F00101 		orrne	r1, r1, #1
 3298              	.LBE1188:
 3299              	.LBE1194:
 3300              	.LBB1195:
 3301              	.LBB1192:
  66:./libDaisy//src/dev/mpr121.h ****     }
 3302              		.loc 1 66 40 view .LVU887
 3303 01e8 0095     		str	r5, [sp]
 3304 01ea 4B48     		ldr	r0, .L116+8
 3305              	.LVL164:
  66:./libDaisy//src/dev/mpr121.h ****     }
 3306              		.loc 1 66 40 view .LVU888
 3307              	.LBE1192:
 3308              	.LBE1195:
 3309              	.LBB1196:
 3310              	.LBB1189:
 3311              		.loc 1 343 55 view .LVU889
 3312 01ec 84F83010 		strb	r1, [r4, #48]
 3313              	.LVL165:
ARM GAS  /var/folders/z2/7_lhr9dn53s9tj4s0rwtyswm0000gn/T//ccOZi2Cx.s 			page 99


 3314              		.loc 1 343 55 view .LVU890
 3315              	.LBE1189:
 3316              	.LBE1196:
 3317              	.LBB1197:
 3318              	.LBI1190:
  63:./libDaisy//src/dev/mpr121.h ****     {
 3319              		.loc 1 63 10 is_stmt 1 view .LVU891
 3320              	.LBB1193:
  65:./libDaisy//src/dev/mpr121.h ****                != i2c_.TransmitBlocking(config_.dev_addr, data, size, 10);
 3321              		.loc 1 65 9 view .LVU892
  66:./libDaisy//src/dev/mpr121.h ****     }
 3322              		.loc 1 66 40 is_stmt 0 view .LVU893
 3323 01f0 94F82C10 		ldrb	r1, [r4, #44]	@ zero_extendqisi2
 3324 01f4 FFF7FEFF 		bl	_ZN5daisy9I2CHandle16TransmitBlockingEtPhtm
 3325              	.LVL166:
  66:./libDaisy//src/dev/mpr121.h ****     }
 3326              		.loc 1 66 40 view .LVU894
 3327              	.LBE1193:
 3328              	.LBE1197:
 3329              	.LBB1198:
 3330              	.LBI1198:
 3331              		.loc 1 343 10 is_stmt 1 view .LVU895
 3332              	.LBB1199:
 3333              		.loc 1 343 55 is_stmt 0 view .LVU896
 3334 01f8 94F830C0 		ldrb	ip, [r4, #48]	@ zero_extendqisi2
 3335              	.LBE1199:
 3336              	.LBE1198:
 281:./libDaisy//src/dev/mpr121.h ****         buff[1] = value;
 3337              		.loc 1 281 17 view .LVU897
 3338 01fc 721C     		adds	r2, r6, #1
 3339              	.LBB1202:
 3340              	.LBB1203:
  66:./libDaisy//src/dev/mpr121.h ****     }
 3341              		.loc 1 66 40 view .LVU898
 3342 01fe 0223     		movs	r3, #2
 3343              	.LBE1203:
 3344              	.LBE1202:
 3345              	.LBB1207:
 3346              	.LBB1200:
 3347              		.loc 1 343 55 view .LVU899
 3348 0200 4045     		cmp	r0, r8
 3349 0202 18BF     		it	ne
 3350 0204 4CF0010C 		orrne	ip, ip, #1
 3351              	.LBE1200:
 3352              	.LBE1207:
 3353              	.LBB1208:
 3354              	.LBB1204:
  66:./libDaisy//src/dev/mpr121.h ****     }
 3355              		.loc 1 66 40 view .LVU900
 3356 0208 94F82C10 		ldrb	r1, [r4, #44]	@ zero_extendqisi2
 3357 020c 0095     		str	r5, [sp]
 3358              	.LBE1204:
 3359              	.LBE1208:
 3360              	.LBE1231:
 3361              	.LBE1238:
 180:./libDaisy//src/dev/mpr121.h ****         {
 3362              		.loc 1 180 30 view .LVU901
ARM GAS  /var/folders/z2/7_lhr9dn53s9tj4s0rwtyswm0000gn/T//ccOZi2Cx.s 			page 100


 3363 020e 0236     		adds	r6, r6, #2
 3364              	.LVL167:
 3365              	.LBB1239:
 3366              	.LBB1232:
 281:./libDaisy//src/dev/mpr121.h ****         buff[1] = value;
 3367              		.loc 1 281 17 view .LVU902
 3368 0210 8DF81C20 		strb	r2, [sp, #28]
 3369              	.LBB1209:
 3370              	.LBB1205:
  66:./libDaisy//src/dev/mpr121.h ****     }
 3371              		.loc 1 66 40 view .LVU903
 3372 0214 07AA     		add	r2, sp, #28
 3373 0216 4048     		ldr	r0, .L116+8
 3374              	.LVL168:
  66:./libDaisy//src/dev/mpr121.h ****     }
 3375              		.loc 1 66 40 view .LVU904
 3376              	.LBE1205:
 3377              	.LBE1209:
 3378              	.LBE1232:
 3379              	.LBE1239:
 180:./libDaisy//src/dev/mpr121.h ****         {
 3380              		.loc 1 180 30 view .LVU905
 3381 0218 F6B2     		uxtb	r6, r6
 3382              	.LBB1240:
 3383              	.LBB1233:
 3384              	.LBB1210:
 3385              	.LBB1201:
 3386              		.loc 1 343 55 view .LVU906
 3387 021a 84F830C0 		strb	ip, [r4, #48]
 3388              	.LVL169:
 3389              		.loc 1 343 55 view .LVU907
 3390              	.LBE1201:
 3391              	.LBE1210:
 282:./libDaisy//src/dev/mpr121.h ****         SetTransportErr(transport_.Write(buff, 2));
 3392              		.loc 1 282 17 view .LVU908
 3393 021e 8DF81D90 		strb	r9, [sp, #29]
 3394              	.LVL170:
 3395              	.LBB1211:
 3396              	.LBI1202:
  63:./libDaisy//src/dev/mpr121.h ****     {
 3397              		.loc 1 63 10 is_stmt 1 view .LVU909
 3398              	.LBB1206:
  65:./libDaisy//src/dev/mpr121.h ****                != i2c_.TransmitBlocking(config_.dev_addr, data, size, 10);
 3399              		.loc 1 65 9 view .LVU910
  66:./libDaisy//src/dev/mpr121.h ****     }
 3400              		.loc 1 66 40 is_stmt 0 view .LVU911
 3401 0222 FFF7FEFF 		bl	_ZN5daisy9I2CHandle16TransmitBlockingEtPhtm
 3402              	.LVL171:
  66:./libDaisy//src/dev/mpr121.h ****     }
 3403              		.loc 1 66 40 view .LVU912
 3404              	.LBE1206:
 3405              	.LBE1211:
 3406              	.LBB1212:
 3407              	.LBI1212:
 3408              		.loc 1 343 10 is_stmt 1 view .LVU913
 3409              	.LBB1213:
 3410              		.loc 1 343 55 is_stmt 0 view .LVU914
ARM GAS  /var/folders/z2/7_lhr9dn53s9tj4s0rwtyswm0000gn/T//ccOZi2Cx.s 			page 101


 3411 0226 94F83020 		ldrb	r2, [r4, #48]	@ zero_extendqisi2
 3412              	.LBE1213:
 3413              	.LBE1212:
 3414              	.LBB1216:
 3415              	.LBB1217:
  66:./libDaisy//src/dev/mpr121.h ****     }
 3416              		.loc 1 66 40 view .LVU915
 3417 022a 0223     		movs	r3, #2
 3418              	.LBE1217:
 3419              	.LBE1216:
 289:./libDaisy//src/dev/mpr121.h ****             SetTransportErr(transport_.Write(buff, 2));
 3420              		.loc 1 289 21 view .LVU916
 3421 022c 9DF80810 		ldrb	r1, [sp, #8]	@ zero_extendqisi2
 3422              	.LBB1221:
 3423              	.LBB1218:
  66:./libDaisy//src/dev/mpr121.h ****     }
 3424              		.loc 1 66 40 view .LVU917
 3425 0230 0095     		str	r5, [sp]
 3426              	.LBE1218:
 3427              	.LBE1221:
 3428              	.LBB1222:
 3429              	.LBB1214:
 3430              		.loc 1 343 55 view .LVU918
 3431 0232 4045     		cmp	r0, r8
 3432 0234 0CBF     		ite	eq
 3433 0236 1546     		moveq	r5, r2
 3434 0238 42F00105 		orrne	r5, r2, #1
 3435              	.LBE1214:
 3436              	.LBE1222:
 289:./libDaisy//src/dev/mpr121.h ****             SetTransportErr(transport_.Write(buff, 2));
 3437              		.loc 1 289 21 view .LVU919
 3438 023c 8DF81D10 		strb	r1, [sp, #29]
 3439              	.LBB1223:
 3440              	.LBB1219:
  66:./libDaisy//src/dev/mpr121.h ****     }
 3441              		.loc 1 66 40 view .LVU920
 3442 0240 07AA     		add	r2, sp, #28
 3443 0242 94F82C10 		ldrb	r1, [r4, #44]	@ zero_extendqisi2
 3444 0246 3448     		ldr	r0, .L116+8
 3445              	.LVL172:
  66:./libDaisy//src/dev/mpr121.h ****     }
 3446              		.loc 1 66 40 view .LVU921
 3447              	.LBE1219:
 3448              	.LBE1223:
 288:./libDaisy//src/dev/mpr121.h ****             buff[1] = ecr_backup;
 3449              		.loc 1 288 21 view .LVU922
 3450 0248 8DF81C70 		strb	r7, [sp, #28]
 3451              	.LBB1224:
 3452              	.LBB1215:
 3453              		.loc 1 343 55 view .LVU923
 3454 024c 84F83050 		strb	r5, [r4, #48]
 3455              	.LVL173:
 3456              		.loc 1 343 55 view .LVU924
 3457              	.LBE1215:
 3458              	.LBE1224:
 3459              	.LBB1225:
 3460              	.LBI1216:
ARM GAS  /var/folders/z2/7_lhr9dn53s9tj4s0rwtyswm0000gn/T//ccOZi2Cx.s 			page 102


  63:./libDaisy//src/dev/mpr121.h ****     {
 3461              		.loc 1 63 10 is_stmt 1 view .LVU925
 3462              	.LBB1220:
  65:./libDaisy//src/dev/mpr121.h ****                != i2c_.TransmitBlocking(config_.dev_addr, data, size, 10);
 3463              		.loc 1 65 9 view .LVU926
  66:./libDaisy//src/dev/mpr121.h ****     }
 3464              		.loc 1 66 40 is_stmt 0 view .LVU927
 3465 0250 FFF7FEFF 		bl	_ZN5daisy9I2CHandle16TransmitBlockingEtPhtm
 3466              	.LVL174:
  66:./libDaisy//src/dev/mpr121.h ****     }
 3467              		.loc 1 66 40 view .LVU928
 3468              	.LBE1220:
 3469              	.LBE1225:
 3470              	.LBB1226:
 3471              	.LBI1226:
 3472              		.loc 1 343 10 is_stmt 1 view .LVU929
 3473              	.LBB1227:
 3474              		.loc 1 343 55 is_stmt 0 view .LVU930
 3475 0254 94F83030 		ldrb	r3, [r4, #48]	@ zero_extendqisi2
 3476 0258 4045     		cmp	r0, r8
 3477 025a 18BF     		it	ne
 3478 025c 43F00103 		orrne	r3, r3, #1
 3479              	.LBE1227:
 3480              	.LBE1226:
 3481              	.LBE1233:
 3482              	.LBE1240:
 180:./libDaisy//src/dev/mpr121.h ****         {
 3483              		.loc 1 180 30 view .LVU931
 3484 0260 592E     		cmp	r6, #89
 3485              	.LBB1241:
 3486              	.LBB1234:
 3487              	.LBB1229:
 3488              	.LBB1228:
 3489              		.loc 1 343 55 view .LVU932
 3490 0262 84F83030 		strb	r3, [r4, #48]
 3491              	.LVL175:
 3492              		.loc 1 343 55 view .LVU933
 3493              	.LBE1228:
 3494              	.LBE1229:
 3495              	.LBE1234:
 3496              	.LBE1241:
 180:./libDaisy//src/dev/mpr121.h ****         {
 3497              		.loc 1 180 9 is_stmt 1 view .LVU934
 180:./libDaisy//src/dev/mpr121.h ****         {
 3498              		.loc 1 180 30 view .LVU935
 3499 0266 7FF439AF 		bne	.L110
 3500              	.LVL176:
 180:./libDaisy//src/dev/mpr121.h ****         {
 3501              		.loc 1 180 30 is_stmt 0 view .LVU936
 3502              	.LBE1093:
 3503              	.LBE1092:
 134:./libDaisy//src/dev/mpr121.h ****         WriteRegister(MPR121_NHDR, 0x01);
 3504              		.loc 1 134 22 view .LVU937
 3505 026a 0122     		movs	r2, #1
 3506 026c 2B21     		movs	r1, #43
 3507 026e 2948     		ldr	r0, .L116+4
 3508              	.LBB1242:
ARM GAS  /var/folders/z2/7_lhr9dn53s9tj4s0rwtyswm0000gn/T//ccOZi2Cx.s 			page 103


 3509              	.LBB1243:
 344:./libDaisy//src/dev/mpr121.h **** 
 345:./libDaisy//src/dev/mpr121.h ****     /** Get the global transport_error_ bool (as a Result), then reset it */
 346:./libDaisy//src/dev/mpr121.h ****     Result GetTransportErr()
 347:./libDaisy//src/dev/mpr121.h ****     {
 348:./libDaisy//src/dev/mpr121.h ****         Result ret       = transport_error_ ? ERR : OK;
 349:./libDaisy//src/dev/mpr121.h ****         transport_error_ = false;
 3510              		.loc 1 349 26 view .LVU938
 3511 0270 4FF49676 		mov	r6, #300
 3512              	.LBE1243:
 3513              	.LBE1242:
 134:./libDaisy//src/dev/mpr121.h ****         WriteRegister(MPR121_NHDR, 0x01);
 3514              		.loc 1 134 22 view .LVU939
 3515 0274 FFF7FEFF 		bl	_ZN5daisy6Mpr121INS_18Mpr121I2CTransportEE13WriteRegisterEhh
 3516              	.LVL177:
 135:./libDaisy//src/dev/mpr121.h ****         WriteRegister(MPR121_NCLR, 0x0E);
 3517              		.loc 1 135 22 view .LVU940
 3518 0278 0122     		movs	r2, #1
 3519 027a 2C21     		movs	r1, #44
 3520 027c 2548     		ldr	r0, .L116+4
 3521 027e FFF7FEFF 		bl	_ZN5daisy6Mpr121INS_18Mpr121I2CTransportEE13WriteRegisterEhh
 3522              	.LVL178:
 136:./libDaisy//src/dev/mpr121.h ****         WriteRegister(MPR121_FDLR, 0x00);
 3523              		.loc 1 136 22 view .LVU941
 3524 0282 2D21     		movs	r1, #45
 3525 0284 2348     		ldr	r0, .L116+4
 3526 0286 0E22     		movs	r2, #14
 3527 0288 FFF7FEFF 		bl	_ZN5daisy6Mpr121INS_18Mpr121I2CTransportEE13WriteRegisterEhh
 3528              	.LVL179:
 137:./libDaisy//src/dev/mpr121.h **** 
 3529              		.loc 1 137 22 view .LVU942
 3530 028c 4246     		mov	r2, r8
 3531 028e 2E21     		movs	r1, #46
 3532 0290 2048     		ldr	r0, .L116+4
 3533 0292 FFF7FEFF 		bl	_ZN5daisy6Mpr121INS_18Mpr121I2CTransportEE13WriteRegisterEhh
 3534              	.LVL180:
 139:./libDaisy//src/dev/mpr121.h ****         WriteRegister(MPR121_NHDF, 0x05);
 3535              		.loc 1 139 22 view .LVU943
 3536 0296 0122     		movs	r2, #1
 3537 0298 2F21     		movs	r1, #47
 3538 029a 1E48     		ldr	r0, .L116+4
 3539 029c FFF7FEFF 		bl	_ZN5daisy6Mpr121INS_18Mpr121I2CTransportEE13WriteRegisterEhh
 3540              	.LVL181:
 140:./libDaisy//src/dev/mpr121.h ****         WriteRegister(MPR121_NCLF, 0x01);
 3541              		.loc 1 140 22 view .LVU944
 3542 02a0 0522     		movs	r2, #5
 3543 02a2 3021     		movs	r1, #48
 3544 02a4 1B48     		ldr	r0, .L116+4
 3545 02a6 FFF7FEFF 		bl	_ZN5daisy6Mpr121INS_18Mpr121I2CTransportEE13WriteRegisterEhh
 3546              	.LVL182:
 141:./libDaisy//src/dev/mpr121.h ****         WriteRegister(MPR121_FDLF, 0x00);
 3547              		.loc 1 141 22 view .LVU945
 3548 02aa 3121     		movs	r1, #49
 3549 02ac 1948     		ldr	r0, .L116+4
 3550 02ae 0122     		movs	r2, #1
 3551 02b0 FFF7FEFF 		bl	_ZN5daisy6Mpr121INS_18Mpr121I2CTransportEE13WriteRegisterEhh
 3552              	.LVL183:
ARM GAS  /var/folders/z2/7_lhr9dn53s9tj4s0rwtyswm0000gn/T//ccOZi2Cx.s 			page 104


 142:./libDaisy//src/dev/mpr121.h **** 
 3553              		.loc 1 142 22 view .LVU946
 3554 02b4 4246     		mov	r2, r8
 3555 02b6 3221     		movs	r1, #50
 3556 02b8 1648     		ldr	r0, .L116+4
 3557 02ba FFF7FEFF 		bl	_ZN5daisy6Mpr121INS_18Mpr121I2CTransportEE13WriteRegisterEhh
 3558              	.LVL184:
 144:./libDaisy//src/dev/mpr121.h ****         WriteRegister(MPR121_NCLT, 0x00);
 3559              		.loc 1 144 22 view .LVU947
 3560 02be 4246     		mov	r2, r8
 3561 02c0 3321     		movs	r1, #51
 3562 02c2 1448     		ldr	r0, .L116+4
 3563 02c4 FFF7FEFF 		bl	_ZN5daisy6Mpr121INS_18Mpr121I2CTransportEE13WriteRegisterEhh
 3564              	.LVL185:
 145:./libDaisy//src/dev/mpr121.h ****         WriteRegister(MPR121_FDLT, 0x00);
 3565              		.loc 1 145 22 view .LVU948
 3566 02c8 4246     		mov	r2, r8
 3567 02ca 3421     		movs	r1, #52
 3568 02cc 1148     		ldr	r0, .L116+4
 3569 02ce FFF7FEFF 		bl	_ZN5daisy6Mpr121INS_18Mpr121I2CTransportEE13WriteRegisterEhh
 3570              	.LVL186:
 146:./libDaisy//src/dev/mpr121.h **** 
 3571              		.loc 1 146 22 view .LVU949
 3572 02d2 4246     		mov	r2, r8
 3573 02d4 3521     		movs	r1, #53
 3574 02d6 0F48     		ldr	r0, .L116+4
 3575 02d8 FFF7FEFF 		bl	_ZN5daisy6Mpr121INS_18Mpr121I2CTransportEE13WriteRegisterEhh
 3576              	.LVL187:
 148:./libDaisy//src/dev/mpr121.h ****         WriteRegister(MPR121_CONFIG1, 0x10); // default, 16uA charge current
 3577              		.loc 1 148 22 view .LVU950
 3578 02dc 4246     		mov	r2, r8
 3579 02de 5B21     		movs	r1, #91
 3580 02e0 0C48     		ldr	r0, .L116+4
 3581 02e2 FFF7FEFF 		bl	_ZN5daisy6Mpr121INS_18Mpr121I2CTransportEE13WriteRegisterEhh
 3582              	.LVL188:
 149:./libDaisy//src/dev/mpr121.h ****         WriteRegister(MPR121_CONFIG2, 0x20); // 0.5uS encoding, 1ms period
 3583              		.loc 1 149 22 view .LVU951
 3584 02e6 1022     		movs	r2, #16
 3585 02e8 5C21     		movs	r1, #92
 3586 02ea 0A48     		ldr	r0, .L116+4
 3587 02ec FFF7FEFF 		bl	_ZN5daisy6Mpr121INS_18Mpr121I2CTransportEE13WriteRegisterEhh
 3588              	.LVL189:
 150:./libDaisy//src/dev/mpr121.h **** 
 3589              		.loc 1 150 22 view .LVU952
 3590 02f0 2022     		movs	r2, #32
 3591 02f2 5D21     		movs	r1, #93
 3592 02f4 0748     		ldr	r0, .L116+4
 3593 02f6 FFF7FEFF 		bl	_ZN5daisy6Mpr121INS_18Mpr121I2CTransportEE13WriteRegisterEhh
 3594              	.LVL190:
 166:./libDaisy//src/dev/mpr121.h ****                       ECR_SETTING); // start with above ECR setting
 3595              		.loc 1 166 22 view .LVU953
 3596 02fa 3946     		mov	r1, r7
 3597 02fc 8C22     		movs	r2, #140
 3598 02fe 0548     		ldr	r0, .L116+4
 3599 0300 FFF7FEFF 		bl	_ZN5daisy6Mpr121INS_18Mpr121I2CTransportEE13WriteRegisterEhh
 3600              	.LVL191:
 3601              	.LBB1245:
ARM GAS  /var/folders/z2/7_lhr9dn53s9tj4s0rwtyswm0000gn/T//ccOZi2Cx.s 			page 105


 3602              	.LBI1242:
 346:./libDaisy//src/dev/mpr121.h ****     {
 3603              		.loc 1 346 12 is_stmt 1 view .LVU954
 3604 0304 054B     		ldr	r3, .L116+12
 3605 0306 0649     		ldr	r1, .L116+16
 3606 0308 064A     		ldr	r2, .L116+20
 3607              	.LBB1244:
 3608              		.loc 1 349 26 is_stmt 0 view .LVU955
 3609 030a 84F83080 		strb	r8, [r4, #48]
 3610 030e 0FE0     		b	.L117
 3611              	.L118:
 3612              		.align	2
 3613              	.L116:
 3614 0310 00000000 		.word	.LANCHOR8
 3615 0314 00000000 		.word	.LANCHOR10
 3616 0318 18000000 		.word	.LANCHOR10+24
 3617 031c 00000000 		.word	aps
 3618 0320 6C3B0000 		.word	ds+15212
 3619 0324 00000000 		.word	.LANCHOR1
 3620 0328 01080109 		.word	151062529
 3621 032c 04000000 		.word	.LANCHOR9+4
 3622              	.L117:
 3623              	.LVL192:
 3624              		.loc 1 349 26 view .LVU956
 3625              	.LBE1244:
 3626              	.LBE1245:
 3627              	.LBE1248:
 3628              	.LBE1264:
 169:MPR121.cpp    **** 
 170:MPR121.cpp    **** 
 171:MPR121.cpp    ****     for (int i = 0;i<4;++i) {
 3629              		.loc 14 171 5 is_stmt 1 view .LVU957
 3630              	.LBB1265:
 3631              		.loc 14 171 21 view .LVU958
 3632              	.L111:
 172:MPR121.cpp    ****         aps[i].init(0.5,0.5);
 3633              		.loc 14 172 9 discriminator 2 view .LVU959
 3634              	.LBB1266:
 3635              	.LBI1266:
  28:./virveldsp/src/comb.h ****     m_pos = 0;
 3636              		.loc 17 28 6 discriminator 2 view .LVU960
 3637              	.LBB1267:
  30:./virveldsp/src/comb.h ****     m_fb = fb;
 3638              		.loc 17 30 10 is_stmt 0 discriminator 2 view .LVU961
 3639 0330 4FF07C55 		mov	r5, #1056964608
  29:./virveldsp/src/comb.h ****     m_ff = ff;
 3640              		.loc 17 29 11 discriminator 2 view .LVU962
 3641 0334 0020     		movs	r0, #0
  30:./virveldsp/src/comb.h ****     m_fb = fb;
 3642              		.loc 17 30 10 discriminator 2 view .LVU963
 3643 0336 03F5986C 		add	ip, r3, #1216
  31:./virveldsp/src/comb.h ****     m_delayTime = static_cast<float>(m_size);
 3644              		.loc 17 31 10 discriminator 2 view .LVU964
 3645 033a 03F2C447 		addw	r7, r3, #1220
  29:./virveldsp/src/comb.h ****     m_ff = ff;
 3646              		.loc 17 29 11 discriminator 2 view .LVU965
 3647 033e A3F8B404 		strh	r0, [r3, #1204]	@ movhi
ARM GAS  /var/folders/z2/7_lhr9dn53s9tj4s0rwtyswm0000gn/T//ccOZi2Cx.s 			page 106


 3648              	.LBE1267:
 3649              	.LBE1266:
 173:MPR121.cpp    ****         ds[i].init(300*(i+1));
 3650              		.loc 14 173 19 discriminator 2 view .LVU966
 3651 0342 07EE906A 		vmov	s15, r6	@ int
 3652              	.LBB1275:
 3653              	.LBB1268:
  30:./virveldsp/src/comb.h ****     m_fb = fb;
 3654              		.loc 17 30 10 discriminator 2 view .LVU967
 3655 0346 CCF80050 		str	r5, [ip]	@ float
 3656              	.LBE1268:
 3657              	.LBE1275:
 171:MPR121.cpp    ****         aps[i].init(0.5,0.5);
 3658              		.loc 14 171 21 discriminator 2 view .LVU968
 3659 034a 06F59676 		add	r6, r6, #300
 3660              	.LBB1276:
 3661              	.LBB1269:
  31:./virveldsp/src/comb.h ****     m_delayTime = static_cast<float>(m_size);
 3662              		.loc 17 31 10 discriminator 2 view .LVU969
 3663 034e 3D60     		str	r5, [r7]	@ float
 3664              	.LBE1269:
 3665              	.LBE1276:
 3666              		.loc 14 173 19 discriminator 2 view .LVU970
 3667 0350 B8EEE77A 		vcvt.f32.s32	s14, s15
 3668              	.LBB1277:
 3669              	.LBB1270:
  32:./virveldsp/src/comb.h **** }
 3670              		.loc 17 32 19 discriminator 2 view .LVU971
 3671 0354 1F88     		ldrh	r7, [r3]
  29:./virveldsp/src/comb.h ****     m_ff = ff;
 3672              		.loc 17 29 11 discriminator 2 view .LVU972
 3673 0356 8046     		mov	r8, r0	@ movhi
 3674              	.LBE1270:
 3675              	.LBE1277:
 171:MPR121.cpp    ****         aps[i].init(0.5,0.5);
 3676              		.loc 14 171 21 discriminator 2 view .LVU973
 3677 0358 40F2DC50 		movw	r0, #1500
 3678              	.LBB1278:
 3679              	.LBB1279:
  14:./virveldsp/src/lowpass.h ****                 m_fac = fac;
 3680              		.loc 16 14 22 discriminator 2 view .LVU974
 3681 035c 4BF6803C 		movw	ip, #48000
 3682              	.LBE1279:
 3683              	.LBE1278:
 3684              	.LBB1284:
 3685              	.LBB1271:
  32:./virveldsp/src/comb.h **** }
 3686              		.loc 17 32 19 discriminator 2 view .LVU975
 3687 0360 07EE907A 		vmov	s15, r7	@ int
 3688              	.LBE1271:
 3689              	.LBE1284:
 3690              	.LBB1285:
 3691              	.LBB1280:
  16:./virveldsp/src/lowpass.h ****             }
 3692              		.loc 16 16 24 discriminator 2 view .LVU976
 3693 0364 4FF00009 		mov	r9, #0
 3694              	.LBE1280:
ARM GAS  /var/folders/z2/7_lhr9dn53s9tj4s0rwtyswm0000gn/T//ccOZi2Cx.s 			page 107


 3695              	.LBE1285:
 3696              	.LBB1286:
 3697              	.LBB1272:
  32:./virveldsp/src/comb.h **** }
 3698              		.loc 17 32 17 discriminator 2 view .LVU977
 3699 0368 03F59767 		add	r7, r3, #1208
 3700              	.LBE1272:
 3701              	.LBE1286:
 3702              		.loc 14 173 19 discriminator 2 view .LVU978
 3703 036c 81ED007A 		vstr.32	s14, [r1]
 3704              	.LBB1287:
 3705              	.LBB1273:
  32:./virveldsp/src/comb.h **** }
 3706              		.loc 17 32 19 discriminator 2 view .LVU979
 3707 0370 F8EE677A 		vcvt.f32.u32	s15, s15
 3708              	.LBE1273:
 3709              	.LBE1287:
 171:MPR121.cpp    ****         aps[i].init(0.5,0.5);
 3710              		.loc 14 171 21 discriminator 2 view .LVU980
 3711 0374 01F56D51 		add	r1, r1, #15168
 3712 0378 8642     		cmp	r6, r0
 3713              	.LBB1288:
 3714              	.LBB1281:
  15:./virveldsp/src/lowpass.h ****                 m_prev = 0.f;
 3715              		.loc 16 15 23 discriminator 2 view .LVU981
 3716 037a 5560     		str	r5, [r2, #4]	@ float
  14:./virveldsp/src/lowpass.h ****                 m_fac = fac;
 3717              		.loc 16 14 22 discriminator 2 view .LVU982
 3718 037c A2F800C0 		strh	ip, [r2]	@ movhi
 3719              	.LBE1281:
 3720              	.LBE1288:
 171:MPR121.cpp    ****         aps[i].init(0.5,0.5);
 3721              		.loc 14 171 21 discriminator 2 view .LVU983
 3722 0380 03F59963 		add	r3, r3, #1224
 3723              	.LBB1289:
 3724              	.LBB1282:
  16:./virveldsp/src/lowpass.h ****             }
 3725              		.loc 16 16 24 discriminator 2 view .LVU984
 3726 0384 C2F80890 		str	r9, [r2, #8]	@ float
 3727              	.LBE1282:
 3728              	.LBE1289:
 171:MPR121.cpp    ****         aps[i].init(0.5,0.5);
 3729              		.loc 14 171 21 discriminator 2 view .LVU985
 3730 0388 01F13401 		add	r1, r1, #52
 3731 038c 02F10C02 		add	r2, r2, #12
 3732              	.LBB1290:
 3733              	.LBB1274:
  32:./virveldsp/src/comb.h **** }
 3734              		.loc 17 32 19 discriminator 2 view .LVU986
 3735 0390 C7ED007A 		vstr.32	s15, [r7]
 3736              	.LVL193:
  32:./virveldsp/src/comb.h **** }
 3737              		.loc 17 32 19 discriminator 2 view .LVU987
 3738              	.LBE1274:
 3739              	.LBE1290:
 3740              		.loc 14 173 9 is_stmt 1 discriminator 2 view .LVU988
 3741              	.LBB1291:
ARM GAS  /var/folders/z2/7_lhr9dn53s9tj4s0rwtyswm0000gn/T//ccOZi2Cx.s 			page 108


 3742              	.LBI1291:
  16:./virveldsp/src/delay.h ****             m_delayTime = initSize;
 3743              		.loc 15 16 14 discriminator 2 view .LVU989
  16:./virveldsp/src/delay.h ****             m_delayTime = initSize;
 3744              		.loc 15 16 14 is_stmt 0 discriminator 2 view .LVU990
 3745              	.LBE1291:
 174:MPR121.cpp    ****         lps[i].init(48000, 0.5);
 3746              		.loc 14 174 9 is_stmt 1 discriminator 2 view .LVU991
 3747              	.LBB1292:
 3748              	.LBI1278:
  13:./virveldsp/src/lowpass.h ****                 m_sr = samplerate;
 3749              		.loc 16 13 18 discriminator 2 view .LVU992
 3750              	.LBB1283:
  14:./virveldsp/src/lowpass.h ****                 m_fac = fac;
 3751              		.loc 16 14 17 discriminator 2 view .LVU993
  15:./virveldsp/src/lowpass.h ****                 m_prev = 0.f;
 3752              		.loc 16 15 17 discriminator 2 view .LVU994
  16:./virveldsp/src/lowpass.h ****             }
 3753              		.loc 16 16 17 discriminator 2 view .LVU995
  16:./virveldsp/src/lowpass.h ****             }
 3754              		.loc 16 16 17 is_stmt 0 discriminator 2 view .LVU996
 3755              	.LBE1283:
 3756              	.LBE1292:
 171:MPR121.cpp    ****         aps[i].init(0.5,0.5);
 3757              		.loc 14 171 5 is_stmt 1 discriminator 2 view .LVU997
 171:MPR121.cpp    ****         aps[i].init(0.5,0.5);
 3758              		.loc 14 171 21 discriminator 2 view .LVU998
 3759 0394 CCD1     		bne	.L111
 3760              	.LBE1265:
 175:MPR121.cpp    ****     }
 176:MPR121.cpp    **** 
 177:MPR121.cpp    ****     aps[0].setDelayTime(19);
 3761              		.loc 14 177 5 view .LVU999
 3762              	.LVL194:
 3763              	.LBB1293:
 3764              	.LBI1293:
  42:./virveldsp/src/comb.h ****     m_delayTime = delayTime;
 3765              		.loc 17 42 13 view .LVU1000
 3766              	.LBB1294:
  43:./virveldsp/src/comb.h **** }
 3767              		.loc 17 43 17 is_stmt 0 view .LVU1001
 3768 0396 504B     		ldr	r3, .L119
 3769              	.LBE1294:
 3770              	.LBE1293:
 3771              	.LBB1297:
 3772              	.LBB1298:
  61:./DaisySP//Source/Synthesis/oscillator.h ****     }
 3773              		.loc 13 61 20 view .LVU1002
 3774 0398 40F2011A 		movw	r10, #257
 3775              	.LBE1298:
 3776              	.LBE1297:
 3777              	.LBB1308:
 3778              	.LBB1295:
  43:./virveldsp/src/comb.h **** }
 3779              		.loc 17 43 17 view .LVU1003
 3780 039c 4F4A     		ldr	r2, .L119+4
 3781              	.LBE1295:
ARM GAS  /var/folders/z2/7_lhr9dn53s9tj4s0rwtyswm0000gn/T//ccOZi2Cx.s 			page 109


 3782              	.LBE1308:
 3783              	.LBB1309:
 3784              	.LBB1310:
 3785 039e 5049     		ldr	r1, .L119+8
 3786              	.LBE1310:
 3787              	.LBE1309:
 3788              	.LBB1313:
 3789              	.LBB1296:
 3790 03a0 1A60     		str	r2, [r3]	@ float
 3791              	.LVL195:
  43:./virveldsp/src/comb.h **** }
 3792              		.loc 17 43 17 view .LVU1004
 3793              	.LBE1296:
 3794              	.LBE1313:
 178:MPR121.cpp    ****     aps[1].setDelayTime(11);
 3795              		.loc 14 178 5 is_stmt 1 view .LVU1005
 3796              	.LBB1314:
 3797              	.LBI1309:
  42:./virveldsp/src/comb.h ****     m_delayTime = delayTime;
 3798              		.loc 17 42 13 view .LVU1006
 3799              	.LBB1311:
  43:./virveldsp/src/comb.h **** }
 3800              		.loc 17 43 17 is_stmt 0 view .LVU1007
 3801 03a2 03F59962 		add	r2, r3, #1224
 3802              	.LBE1311:
 3803              	.LBE1314:
 3804              	.LBB1315:
 3805              	.LBB1299:
  52:./DaisySP//Source/Synthesis/oscillator.h ****         sr_recip_  = 1.0f / sample_rate;
 3806              		.loc 13 52 20 view .LVU1008
 3807 03a6 4F4F     		ldr	r7, .L119+12
 3808              	.LBE1299:
 3809              	.LBE1315:
 3810              	.LBB1316:
 3811              	.LBB1312:
  43:./virveldsp/src/comb.h **** }
 3812              		.loc 17 43 17 view .LVU1009
 3813 03a8 1160     		str	r1, [r2]	@ float
 3814              	.LVL196:
  43:./virveldsp/src/comb.h **** }
 3815              		.loc 17 43 17 view .LVU1010
 3816              	.LBE1312:
 3817              	.LBE1316:
 179:MPR121.cpp    ****     aps[2].setDelayTime(33);
 3818              		.loc 14 179 5 is_stmt 1 view .LVU1011
 3819              	.LBB1317:
 3820              	.LBI1317:
  42:./virveldsp/src/comb.h ****     m_delayTime = delayTime;
 3821              		.loc 17 42 13 view .LVU1012
 3822              	.LBB1318:
  43:./virveldsp/src/comb.h **** }
 3823              		.loc 17 43 17 is_stmt 0 view .LVU1013
 3824 03aa 03F51962 		add	r2, r3, #2448
 3825 03ae 4E49     		ldr	r1, .L119+16
 3826              	.LBE1318:
 3827              	.LBE1317:
 3828              	.LBB1320:
ARM GAS  /var/folders/z2/7_lhr9dn53s9tj4s0rwtyswm0000gn/T//ccOZi2Cx.s 			page 110


 3829              	.LBB1321:
 3830 03b0 03F64833 		addw	r3, r3, #2888
 3831              	.LBE1321:
 3832              	.LBE1320:
 3833              	.LBB1324:
 3834              	.LBB1300:
  54:./DaisySP//Source/Synthesis/oscillator.h ****         amp_       = 0.5f;
 3835              		.loc 13 54 20 view .LVU1014
 3836 03b4 9FED4D8A 		vldr.32	s16, .L119+20
  58:./DaisySP//Source/Synthesis/oscillator.h ****         waveform_  = WAVE_SIN;
 3837              		.loc 13 58 34 view .LVU1015
 3838 03b8 3846     		mov	r0, r7
 3839              	.LBE1300:
 3840              	.LBE1324:
 3841              	.LBB1325:
 3842              	.LBB1319:
  43:./virveldsp/src/comb.h **** }
 3843              		.loc 17 43 17 view .LVU1016
 3844 03ba 1160     		str	r1, [r2]	@ float
 3845              	.LVL197:
  43:./virveldsp/src/comb.h **** }
 3846              		.loc 17 43 17 view .LVU1017
 3847              	.LBE1319:
 3848              	.LBE1325:
 180:MPR121.cpp    ****     aps[3].setDelayTime(41);
 3849              		.loc 14 180 5 is_stmt 1 view .LVU1018
 3850              	.LBB1326:
 3851              	.LBI1320:
  42:./virveldsp/src/comb.h ****     m_delayTime = delayTime;
 3852              		.loc 17 42 13 view .LVU1019
 3853              	.LBB1322:
  43:./virveldsp/src/comb.h **** }
 3854              		.loc 17 43 17 is_stmt 0 view .LVU1020
 3855 03bc 4C4A     		ldr	r2, .L119+24
 3856              	.LBE1322:
 3857              	.LBE1326:
 3858              	.LBB1327:
 3859              	.LBB1301:
  58:./DaisySP//Source/Synthesis/oscillator.h ****         waveform_  = WAVE_SIN;
 3860              		.loc 13 58 34 view .LVU1021
 3861 03be B0EE480A 		vmov.f32	s0, s16
  52:./DaisySP//Source/Synthesis/oscillator.h ****         sr_recip_  = 1.0f / sample_rate;
 3862              		.loc 13 52 20 view .LVU1022
 3863 03c2 DFED4C8A 		vldr.32	s17, .L119+28
 3864              	.LBE1301:
 3865              	.LBE1327:
 3866              	.LBB1328:
 3867              	.LBB1323:
  43:./virveldsp/src/comb.h **** }
 3868              		.loc 17 43 17 view .LVU1023
 3869 03c6 C3F81023 		str	r2, [r3, #784]	@ float
 3870              	.LVL198:
  43:./virveldsp/src/comb.h **** }
 3871              		.loc 17 43 17 view .LVU1024
 3872              	.LBE1323:
 3873              	.LBE1328:
 181:MPR121.cpp    **** 
ARM GAS  /var/folders/z2/7_lhr9dn53s9tj4s0rwtyswm0000gn/T//ccOZi2Cx.s 			page 111


 182:MPR121.cpp    ****     ds[0].setDelayTime(1323);
 3874              		.loc 14 182 5 is_stmt 1 view .LVU1025
 3875              	.LBB1329:
 3876              	.LBI1329:
  32:./virveldsp/src/delay.h ****             m_delayTime = delayTime;
 3877              		.loc 15 32 21 view .LVU1026
 3878              	.LBB1330:
  33:./virveldsp/src/delay.h ****         }
 3879              		.loc 15 33 25 is_stmt 0 view .LVU1027
 3880 03ca 4B4B     		ldr	r3, .L119+32
 3881 03cc 4B4A     		ldr	r2, .L119+36
 3882              	.LBE1330:
 3883              	.LBE1329:
 3884              	.LBB1332:
 3885              	.LBB1302:
  53:./DaisySP//Source/Synthesis/oscillator.h ****         freq_      = 100.0f;
 3886              		.loc 13 53 20 view .LVU1028
 3887 03ce DFF864B1 		ldr	fp, .L119+92
 3888              	.LBE1302:
 3889              	.LBE1332:
 3890              	.LBB1333:
 3891              	.LBB1331:
  33:./virveldsp/src/delay.h ****         }
 3892              		.loc 15 33 25 view .LVU1029
 3893 03d2 1A60     		str	r2, [r3]	@ float
 3894              	.LVL199:
  33:./virveldsp/src/delay.h ****         }
 3895              		.loc 15 33 25 view .LVU1030
 3896              	.LBE1331:
 3897              	.LBE1333:
 183:MPR121.cpp    ****     ds[1].setDelayTime(1779);
 3898              		.loc 14 183 5 is_stmt 1 view .LVU1031
 3899              	.LBB1334:
 3900              	.LBI1334:
  32:./virveldsp/src/delay.h ****             m_delayTime = delayTime;
 3901              		.loc 15 32 21 view .LVU1032
 3902              	.LBB1335:
  33:./virveldsp/src/delay.h ****         }
 3903              		.loc 15 33 25 is_stmt 0 view .LVU1033
 3904 03d4 4A4B     		ldr	r3, .L119+40
 3905 03d6 4B4A     		ldr	r2, .L119+44
 3906              	.LBE1335:
 3907              	.LBE1334:
 3908              	.LBB1337:
 3909              	.LBB1338:
  52:./DaisySP//Source/Synthesis/oscillator.h ****         sr_recip_  = 1.0f / sample_rate;
 3910              		.loc 13 52 20 view .LVU1034
 3911 03d8 4B4E     		ldr	r6, .L119+48
 3912              	.LBE1338:
 3913              	.LBE1337:
 3914              	.LBB1342:
 3915              	.LBB1336:
  33:./virveldsp/src/delay.h ****         }
 3916              		.loc 15 33 25 view .LVU1035
 3917 03da 1A60     		str	r2, [r3]	@ float
 3918              	.LVL200:
  33:./virveldsp/src/delay.h ****         }
ARM GAS  /var/folders/z2/7_lhr9dn53s9tj4s0rwtyswm0000gn/T//ccOZi2Cx.s 			page 112


 3919              		.loc 15 33 25 view .LVU1036
 3920              	.LBE1336:
 3921              	.LBE1342:
 184:MPR121.cpp    ****     ds[2].setDelayTime(3397);
 3922              		.loc 14 184 5 is_stmt 1 view .LVU1037
 3923              	.LBB1343:
 3924              	.LBI1343:
  32:./virveldsp/src/delay.h ****             m_delayTime = delayTime;
 3925              		.loc 15 32 21 view .LVU1038
 3926              	.LBB1344:
  33:./virveldsp/src/delay.h ****         }
 3927              		.loc 15 33 25 is_stmt 0 view .LVU1039
 3928 03dc 4B4B     		ldr	r3, .L119+52
 3929 03de 4C4A     		ldr	r2, .L119+56
 3930              	.LBE1344:
 3931              	.LBE1343:
 3932              	.LBB1346:
 3933              	.LBB1303:
  55:./DaisySP//Source/Synthesis/oscillator.h ****         pw_        = 0.5f;
 3934              		.loc 13 55 20 view .LVU1040
 3935 03e0 7D60     		str	r5, [r7, #4]	@ float
 3936              	.LBE1303:
 3937              	.LBE1346:
 3938              	.LBB1347:
 3939              	.LBB1345:
  33:./virveldsp/src/delay.h ****         }
 3940              		.loc 15 33 25 view .LVU1041
 3941 03e2 C3F85422 		str	r2, [r3, #596]	@ float
 3942              	.LVL201:
  33:./virveldsp/src/delay.h ****         }
 3943              		.loc 15 33 25 view .LVU1042
 3944              	.LBE1345:
 3945              	.LBE1347:
 185:MPR121.cpp    ****     ds[3].setDelayTime(2391);
 3946              		.loc 14 185 5 is_stmt 1 view .LVU1043
 3947              	.LBB1348:
 3948              	.LBI1348:
  32:./virveldsp/src/delay.h ****             m_delayTime = delayTime;
 3949              		.loc 15 32 21 view .LVU1044
 3950              	.LBB1349:
  33:./virveldsp/src/delay.h ****         }
 3951              		.loc 15 33 25 is_stmt 0 view .LVU1045
 3952 03e6 4B4A     		ldr	r2, .L119+60
 3953 03e8 4B4B     		ldr	r3, .L119+64
 3954              	.LBE1349:
 3955              	.LBE1348:
 3956              	.LBB1351:
 3957              	.LBB1304:
  56:./DaisySP//Source/Synthesis/oscillator.h ****         phase_     = 0.0f;
 3958              		.loc 13 56 20 view .LVU1046
 3959 03ea FD60     		str	r5, [r7, #12]	@ float
 3960              	.LBE1304:
 3961              	.LBE1351:
 3962              	.LBB1352:
 3963              	.LBB1350:
  33:./virveldsp/src/delay.h ****         }
 3964              		.loc 15 33 25 view .LVU1047
ARM GAS  /var/folders/z2/7_lhr9dn53s9tj4s0rwtyswm0000gn/T//ccOZi2Cx.s 			page 113


 3965 03ec 1A60     		str	r2, [r3]	@ float
 3966              	.LVL202:
  33:./virveldsp/src/delay.h ****         }
 3967              		.loc 15 33 25 view .LVU1048
 3968              	.LBE1350:
 3969              	.LBE1352:
 186:MPR121.cpp    **** 
 187:MPR121.cpp    ****     sine.Init(48000);
 3970              		.loc 14 187 5 is_stmt 1 view .LVU1049
 3971              	.LBB1353:
 3972              	.LBI1297:
  50:./DaisySP//Source/Synthesis/oscillator.h ****     {
 3973              		.loc 13 50 10 view .LVU1050
 3974              	.LBB1305:
  52:./DaisySP//Source/Synthesis/oscillator.h ****         sr_recip_  = 1.0f / sample_rate;
 3975              		.loc 13 52 9 view .LVU1051
  53:./DaisySP//Source/Synthesis/oscillator.h ****         freq_      = 100.0f;
 3976              		.loc 13 53 9 view .LVU1052
  54:./DaisySP//Source/Synthesis/oscillator.h ****         amp_       = 0.5f;
 3977              		.loc 13 54 9 view .LVU1053
  55:./DaisySP//Source/Synthesis/oscillator.h ****         pw_        = 0.5f;
 3978              		.loc 13 55 9 view .LVU1054
  56:./DaisySP//Source/Synthesis/oscillator.h ****         phase_     = 0.0f;
 3979              		.loc 13 56 9 view .LVU1055
  57:./DaisySP//Source/Synthesis/oscillator.h ****         phase_inc_ = CalcPhaseInc(freq_);
 3980              		.loc 13 57 9 view .LVU1056
  58:./DaisySP//Source/Synthesis/oscillator.h ****         waveform_  = WAVE_SIN;
 3981              		.loc 13 58 9 view .LVU1057
  54:./DaisySP//Source/Synthesis/oscillator.h ****         amp_       = 0.5f;
 3982              		.loc 13 54 20 is_stmt 0 view .LVU1058
 3983 03ee 87ED028A 		vstr.32	s16, [r7, #8]
  57:./DaisySP//Source/Synthesis/oscillator.h ****         phase_inc_ = CalcPhaseInc(freq_);
 3984              		.loc 13 57 20 view .LVU1059
 3985 03f2 C7F81890 		str	r9, [r7, #24]	@ float
  52:./DaisySP//Source/Synthesis/oscillator.h ****         sr_recip_  = 1.0f / sample_rate;
 3986              		.loc 13 52 20 view .LVU1060
 3987 03f6 C7ED048A 		vstr.32	s17, [r7, #16]
  53:./DaisySP//Source/Synthesis/oscillator.h ****         freq_      = 100.0f;
 3988              		.loc 13 53 20 view .LVU1061
 3989 03fa C7F814B0 		str	fp, [r7, #20]	@ float
  58:./DaisySP//Source/Synthesis/oscillator.h ****         waveform_  = WAVE_SIN;
 3990              		.loc 13 58 34 view .LVU1062
 3991 03fe FFF7FEFF 		bl	_ZN7daisysp10Oscillator12CalcPhaseIncEf
 3992              	.LVL203:
 3993              	.LBE1305:
 3994              	.LBE1353:
 3995              	.LBB1354:
 3996              	.LBB1355:
  71:./DaisySP//Source/Synthesis/oscillator.h ****     }
  72:./DaisySP//Source/Synthesis/oscillator.h **** 
  73:./DaisySP//Source/Synthesis/oscillator.h **** 
  74:./DaisySP//Source/Synthesis/oscillator.h ****     /** Sets the amplitude of the waveform.
  75:./DaisySP//Source/Synthesis/oscillator.h ****     */
  76:./DaisySP//Source/Synthesis/oscillator.h ****     inline void SetAmp(const float a) { amp_ = a; }
  77:./DaisySP//Source/Synthesis/oscillator.h ****     /** Sets the waveform to be synthesized by the Process() function.
  78:./DaisySP//Source/Synthesis/oscillator.h ****     */
  79:./DaisySP//Source/Synthesis/oscillator.h ****     inline void SetWaveform(const uint8_t wf)
ARM GAS  /var/folders/z2/7_lhr9dn53s9tj4s0rwtyswm0000gn/T//ccOZi2Cx.s 			page 114


  80:./DaisySP//Source/Synthesis/oscillator.h ****     {
  81:./DaisySP//Source/Synthesis/oscillator.h ****         waveform_ = wf < WAVE_LAST ? wf : WAVE_SIN;
 3997              		.loc 13 81 19 view .LVU1063
 3998 0402 0523     		movs	r3, #5
 3999              	.LBE1355:
 4000              	.LBE1354:
 4001              	.LBB1357:
 4002              	.LBB1306:
  58:./DaisySP//Source/Synthesis/oscillator.h ****         waveform_  = WAVE_SIN;
 4003              		.loc 13 58 20 view .LVU1064
 4004 0404 87ED070A 		vstr.32	s0, [r7, #28]
  59:./DaisySP//Source/Synthesis/oscillator.h ****         eoc_       = true;
 4005              		.loc 13 59 9 is_stmt 1 view .LVU1065
  60:./DaisySP//Source/Synthesis/oscillator.h ****         eor_       = true;
 4006              		.loc 13 60 9 view .LVU1066
  61:./DaisySP//Source/Synthesis/oscillator.h ****     }
 4007              		.loc 13 61 9 view .LVU1067
 4008              	.LBE1306:
 4009              	.LBE1357:
 4010              	.LBB1358:
 4011              	.LBB1359:
  69:./DaisySP//Source/Synthesis/oscillator.h ****         phase_inc_ = CalcPhaseInc(f);
 4012              		.loc 13 69 20 is_stmt 0 view .LVU1068
 4013 0408 9FED440A 		vldr.32	s0, .L119+68
  70:./DaisySP//Source/Synthesis/oscillator.h ****     }
 4014              		.loc 13 70 34 view .LVU1069
 4015 040c 3846     		mov	r0, r7
 4016              	.LBE1359:
 4017              	.LBE1358:
 4018              	.LBB1362:
 4019              	.LBB1307:
  61:./DaisySP//Source/Synthesis/oscillator.h ****     }
 4020              		.loc 13 61 20 view .LVU1070
 4021 040e A7F828A0 		strh	r10, [r7, #40]	@ movhi
 4022              	.LVL204:
  61:./DaisySP//Source/Synthesis/oscillator.h ****     }
 4023              		.loc 13 61 20 view .LVU1071
 4024              	.LBE1307:
 4025              	.LBE1362:
 188:MPR121.cpp    ****     sine.SetWaveform(5);
 4026              		.loc 14 188 5 is_stmt 1 view .LVU1072
 4027              	.LBB1363:
 4028              	.LBI1354:
  79:./DaisySP//Source/Synthesis/oscillator.h ****     {
 4029              		.loc 13 79 17 view .LVU1073
 4030              	.LBB1356:
 4031              		.loc 13 81 9 view .LVU1074
 4032              		.loc 13 81 19 is_stmt 0 view .LVU1075
 4033 0412 3B70     		strb	r3, [r7]
 4034              	.LVL205:
 4035              		.loc 13 81 19 view .LVU1076
 4036              	.LBE1356:
 4037              	.LBE1363:
 189:MPR121.cpp    ****     sine.SetFreq(110);
 4038              		.loc 14 189 5 is_stmt 1 view .LVU1077
 4039              	.LBB1364:
 4040              	.LBI1358:
ARM GAS  /var/folders/z2/7_lhr9dn53s9tj4s0rwtyswm0000gn/T//ccOZi2Cx.s 			page 115


  67:./DaisySP//Source/Synthesis/oscillator.h ****     {
 4041              		.loc 13 67 17 view .LVU1078
 4042              	.LBB1360:
  69:./DaisySP//Source/Synthesis/oscillator.h ****         phase_inc_ = CalcPhaseInc(f);
 4043              		.loc 13 69 9 view .LVU1079
  70:./DaisySP//Source/Synthesis/oscillator.h ****     }
 4044              		.loc 13 70 9 view .LVU1080
  69:./DaisySP//Source/Synthesis/oscillator.h ****         phase_inc_ = CalcPhaseInc(f);
 4045              		.loc 13 69 20 is_stmt 0 view .LVU1081
 4046 0414 87ED020A 		vstr.32	s0, [r7, #8]
  70:./DaisySP//Source/Synthesis/oscillator.h ****     }
 4047              		.loc 13 70 34 view .LVU1082
 4048 0418 FFF7FEFF 		bl	_ZN7daisysp10Oscillator12CalcPhaseIncEf
 4049              	.LVL206:
 4050              	.LBE1360:
 4051              	.LBE1364:
 4052              	.LBB1365:
 4053              	.LBB1339:
  58:./DaisySP//Source/Synthesis/oscillator.h ****         waveform_  = WAVE_SIN;
 4054              		.loc 13 58 34 view .LVU1083
 4055 041c 3046     		mov	r0, r6
 4056              	.LBE1339:
 4057              	.LBE1365:
 4058              	.LBB1366:
 4059              	.LBB1361:
  70:./DaisySP//Source/Synthesis/oscillator.h ****     }
 4060              		.loc 13 70 20 view .LVU1084
 4061 041e 87ED070A 		vstr.32	s0, [r7, #28]
 4062              	.LVL207:
  70:./DaisySP//Source/Synthesis/oscillator.h ****     }
 4063              		.loc 13 70 20 view .LVU1085
 4064              	.LBE1361:
 4065              	.LBE1366:
 190:MPR121.cpp    **** 
 191:MPR121.cpp    ****     lfo.Init(48000);
 4066              		.loc 14 191 5 is_stmt 1 view .LVU1086
 4067              	.LBB1367:
 4068              	.LBI1337:
  50:./DaisySP//Source/Synthesis/oscillator.h ****     {
 4069              		.loc 13 50 10 view .LVU1087
 4070              	.LBB1340:
  52:./DaisySP//Source/Synthesis/oscillator.h ****         sr_recip_  = 1.0f / sample_rate;
 4071              		.loc 13 52 9 view .LVU1088
  58:./DaisySP//Source/Synthesis/oscillator.h ****         waveform_  = WAVE_SIN;
 4072              		.loc 13 58 34 is_stmt 0 view .LVU1089
 4073 0422 B0EE480A 		vmov.f32	s0, s16
  55:./DaisySP//Source/Synthesis/oscillator.h ****         pw_        = 0.5f;
 4074              		.loc 13 55 20 view .LVU1090
 4075 0426 7560     		str	r5, [r6, #4]	@ float
  56:./DaisySP//Source/Synthesis/oscillator.h ****         phase_     = 0.0f;
 4076              		.loc 13 56 20 view .LVU1091
 4077 0428 F560     		str	r5, [r6, #12]	@ float
  52:./DaisySP//Source/Synthesis/oscillator.h ****         sr_recip_  = 1.0f / sample_rate;
 4078              		.loc 13 52 20 view .LVU1092
 4079 042a C6ED048A 		vstr.32	s17, [r6, #16]
  53:./DaisySP//Source/Synthesis/oscillator.h ****         freq_      = 100.0f;
 4080              		.loc 13 53 9 is_stmt 1 view .LVU1093
ARM GAS  /var/folders/z2/7_lhr9dn53s9tj4s0rwtyswm0000gn/T//ccOZi2Cx.s 			page 116


  53:./DaisySP//Source/Synthesis/oscillator.h ****         freq_      = 100.0f;
 4081              		.loc 13 53 20 is_stmt 0 view .LVU1094
 4082 042e C6F814B0 		str	fp, [r6, #20]	@ float
  54:./DaisySP//Source/Synthesis/oscillator.h ****         amp_       = 0.5f;
 4083              		.loc 13 54 9 is_stmt 1 view .LVU1095
  57:./DaisySP//Source/Synthesis/oscillator.h ****         phase_inc_ = CalcPhaseInc(freq_);
 4084              		.loc 13 57 20 is_stmt 0 view .LVU1096
 4085 0432 C6F81890 		str	r9, [r6, #24]	@ float
  54:./DaisySP//Source/Synthesis/oscillator.h ****         amp_       = 0.5f;
 4086              		.loc 13 54 20 view .LVU1097
 4087 0436 86ED028A 		vstr.32	s16, [r6, #8]
  55:./DaisySP//Source/Synthesis/oscillator.h ****         pw_        = 0.5f;
 4088              		.loc 13 55 9 is_stmt 1 view .LVU1098
  56:./DaisySP//Source/Synthesis/oscillator.h ****         phase_     = 0.0f;
 4089              		.loc 13 56 9 view .LVU1099
  57:./DaisySP//Source/Synthesis/oscillator.h ****         phase_inc_ = CalcPhaseInc(freq_);
 4090              		.loc 13 57 9 view .LVU1100
  58:./DaisySP//Source/Synthesis/oscillator.h ****         waveform_  = WAVE_SIN;
 4091              		.loc 13 58 9 view .LVU1101
  58:./DaisySP//Source/Synthesis/oscillator.h ****         waveform_  = WAVE_SIN;
 4092              		.loc 13 58 34 is_stmt 0 view .LVU1102
 4093 043a FFF7FEFF 		bl	_ZN7daisysp10Oscillator12CalcPhaseIncEf
 4094              	.LVL208:
  58:./DaisySP//Source/Synthesis/oscillator.h ****         waveform_  = WAVE_SIN;
 4095              		.loc 13 58 20 view .LVU1103
 4096 043e 86ED070A 		vstr.32	s0, [r6, #28]
  59:./DaisySP//Source/Synthesis/oscillator.h ****         eoc_       = true;
 4097              		.loc 13 59 9 is_stmt 1 view .LVU1104
  60:./DaisySP//Source/Synthesis/oscillator.h ****         eor_       = true;
 4098              		.loc 13 60 9 view .LVU1105
  61:./DaisySP//Source/Synthesis/oscillator.h ****     }
 4099              		.loc 13 61 9 view .LVU1106
 4100              	.LVL209:
  61:./DaisySP//Source/Synthesis/oscillator.h ****     }
 4101              		.loc 13 61 9 is_stmt 0 view .LVU1107
 4102              	.LBE1340:
 4103              	.LBE1367:
 192:MPR121.cpp    ****     lfo.SetFreq(0.05);
 4104              		.loc 14 192 5 is_stmt 1 view .LVU1108
 4105              	.LBB1368:
 4106              	.LBI1368:
  67:./DaisySP//Source/Synthesis/oscillator.h ****     {
 4107              		.loc 13 67 17 view .LVU1109
 4108              	.LBB1369:
  69:./DaisySP//Source/Synthesis/oscillator.h ****         phase_inc_ = CalcPhaseInc(f);
 4109              		.loc 13 69 9 view .LVU1110
  70:./DaisySP//Source/Synthesis/oscillator.h ****     }
 4110              		.loc 13 70 34 is_stmt 0 view .LVU1111
 4111 0442 3046     		mov	r0, r6
  69:./DaisySP//Source/Synthesis/oscillator.h ****         phase_inc_ = CalcPhaseInc(f);
 4112              		.loc 13 69 20 view .LVU1112
 4113 0444 9FED360A 		vldr.32	s0, .L119+72
 4114              	.LBE1369:
 4115              	.LBE1368:
 4116              	.LBB1372:
 4117              	.LBB1341:
  61:./DaisySP//Source/Synthesis/oscillator.h ****     }
ARM GAS  /var/folders/z2/7_lhr9dn53s9tj4s0rwtyswm0000gn/T//ccOZi2Cx.s 			page 117


 4118              		.loc 13 61 20 view .LVU1113
 4119 0448 A6F828A0 		strh	r10, [r6, #40]	@ movhi
  59:./DaisySP//Source/Synthesis/oscillator.h ****         eoc_       = true;
 4120              		.loc 13 59 20 view .LVU1114
 4121 044c 86F80080 		strb	r8, [r6]
 4122              	.LBE1341:
 4123              	.LBE1372:
 4124              	.LBB1373:
 4125              	.LBB1370:
  69:./DaisySP//Source/Synthesis/oscillator.h ****         phase_inc_ = CalcPhaseInc(f);
 4126              		.loc 13 69 20 view .LVU1115
 4127 0450 86ED020A 		vstr.32	s0, [r6, #8]
  70:./DaisySP//Source/Synthesis/oscillator.h ****     }
 4128              		.loc 13 70 9 is_stmt 1 view .LVU1116
  70:./DaisySP//Source/Synthesis/oscillator.h ****     }
 4129              		.loc 13 70 34 is_stmt 0 view .LVU1117
 4130 0454 FFF7FEFF 		bl	_ZN7daisysp10Oscillator12CalcPhaseIncEf
 4131              	.LVL210:
 4132              	.LBE1370:
 4133              	.LBE1373:
 193:MPR121.cpp    **** 
 194:MPR121.cpp    **** 
 195:MPR121.cpp    **** 	hw.SetAudioBlockSize(16); 
 4134              		.loc 14 195 22 view .LVU1118
 4135 0458 1021     		movs	r1, #16
 4136 045a 3248     		ldr	r0, .L119+76
 4137              	.LBB1374:
 4138              	.LBB1371:
  70:./DaisySP//Source/Synthesis/oscillator.h ****     }
 4139              		.loc 13 70 20 view .LVU1119
 4140 045c 86ED070A 		vstr.32	s0, [r6, #28]
 4141              	.LVL211:
  70:./DaisySP//Source/Synthesis/oscillator.h ****     }
 4142              		.loc 13 70 20 view .LVU1120
 4143              	.LBE1371:
 4144              	.LBE1374:
 4145              		.loc 14 195 2 is_stmt 1 view .LVU1121
 4146              		.loc 14 195 22 is_stmt 0 view .LVU1122
 4147 0460 FFF7FEFF 		bl	_ZN5daisy10Tusenskona17SetAudioBlockSizeEj
 4148              	.LVL212:
 196:MPR121.cpp    **** 	hw.SetAudioSampleRate(SaiHandle::Config::SampleRate::SAI_48KHZ);
 4149              		.loc 14 196 2 is_stmt 1 view .LVU1123
 4150              		.loc 14 196 23 is_stmt 0 view .LVU1124
 4151 0464 0321     		movs	r1, #3
 4152 0466 2F48     		ldr	r0, .L119+76
 4153 0468 FFF7FEFF 		bl	_ZN5daisy10Tusenskona18SetAudioSampleRateENS_9SaiHandle6Config10SampleRateE
 4154              	.LVL213:
 197:MPR121.cpp    ****     hw.StartAdc();
 4155              		.loc 14 197 5 is_stmt 1 view .LVU1125
 4156 046c 2E4D     		ldr	r5, .L119+80
 4157              		.loc 14 197 16 is_stmt 0 view .LVU1126
 4158 046e 2D48     		ldr	r0, .L119+76
 4159 0470 FFF7FEFF 		bl	_ZN5daisy10Tusenskona8StartAdcEv
 4160              	.LVL214:
 198:MPR121.cpp    **** 	hw.StartAudio(NewAudioCallback);
 4161              		.loc 14 198 2 is_stmt 1 view .LVU1127
 4162              		.loc 14 198 15 is_stmt 0 view .LVU1128
ARM GAS  /var/folders/z2/7_lhr9dn53s9tj4s0rwtyswm0000gn/T//ccOZi2Cx.s 			page 118


 4163 0474 2D49     		ldr	r1, .L119+84
 4164 0476 2B48     		ldr	r0, .L119+76
 4165 0478 FFF7FEFF 		bl	_ZN5daisy10Tusenskona10StartAudioEPFvPKPKfPPfjE
 4166              	.LVL215:
 4167              	.L112:
 199:MPR121.cpp    **** 
 200:MPR121.cpp    **** 	while(1) {
 4168              		.loc 14 200 2 is_stmt 1 discriminator 1 view .LVU1129
 201:MPR121.cpp    ****         touched = touch.Touched();
 4169              		.loc 14 201 9 discriminator 1 view .LVU1130
 4170              	.LBB1375:
 4171              	.LBI1375:
 221:./libDaisy//src/dev/mpr121.h ****     {
 4172              		.loc 1 221 14 discriminator 1 view .LVU1131
 4173              	.LBB1376:
 4174              	.LBB1377:
 4175              	.LBB1378:
 4176              	.LBB1379:
 4177              	.LBB1380:
  66:./libDaisy//src/dev/mpr121.h ****     }
 4178              		.loc 1 66 40 is_stmt 0 discriminator 1 view .LVU1132
 4179 047c 0A26     		movs	r6, #10
 4180 047e 4FF0000C 		mov	ip, #0
 4181 0482 02AA     		add	r2, sp, #8
 4182 0484 94F82C10 		ldrb	r1, [r4, #44]	@ zero_extendqisi2
 4183 0488 0123     		movs	r3, #1
 4184 048a 0096     		str	r6, [sp]
 4185 048c 2848     		ldr	r0, .L119+88
 4186 048e 8DF808C0 		strb	ip, [sp, #8]
 4187              	.LVL216:
  66:./libDaisy//src/dev/mpr121.h ****     }
 4188              		.loc 1 66 40 discriminator 1 view .LVU1133
 4189              	.LBE1380:
 4190              	.LBE1379:
 4191              	.LBE1378:
 4192              	.LBI1377:
 244:./libDaisy//src/dev/mpr121.h ****     {
 4193              		.loc 1 244 14 is_stmt 1 discriminator 1 view .LVU1134
 4194              	.LBB1401:
 4195              	.LBB1382:
 4196              	.LBI1379:
  63:./libDaisy//src/dev/mpr121.h ****     {
 4197              		.loc 1 63 10 discriminator 1 view .LVU1135
 4198              	.LBB1381:
  65:./libDaisy//src/dev/mpr121.h ****                != i2c_.TransmitBlocking(config_.dev_addr, data, size, 10);
 4199              		.loc 1 65 9 discriminator 1 view .LVU1136
  66:./libDaisy//src/dev/mpr121.h ****     }
 4200              		.loc 1 66 40 is_stmt 0 discriminator 1 view .LVU1137
 4201 0492 FFF7FEFF 		bl	_ZN5daisy9I2CHandle16TransmitBlockingEtPhtm
 4202              	.LVL217:
  66:./libDaisy//src/dev/mpr121.h ****     }
 4203              		.loc 1 66 40 discriminator 1 view .LVU1138
 4204              	.LBE1381:
 4205              	.LBE1382:
 4206              	.LBB1383:
 4207              	.LBI1383:
 343:./libDaisy//src/dev/mpr121.h **** 
ARM GAS  /var/folders/z2/7_lhr9dn53s9tj4s0rwtyswm0000gn/T//ccOZi2Cx.s 			page 119


 4208              		.loc 1 343 10 is_stmt 1 discriminator 1 view .LVU1139
 4209              	.LBB1384:
 343:./libDaisy//src/dev/mpr121.h **** 
 4210              		.loc 1 343 55 is_stmt 0 discriminator 1 view .LVU1140
 4211 0496 94F830C0 		ldrb	ip, [r4, #48]	@ zero_extendqisi2
 4212              	.LBE1384:
 4213              	.LBE1383:
 4214              	.LBB1387:
 4215              	.LBB1388:
  73:./libDaisy//src/dev/mpr121.h ****     }
 4216              		.loc 1 73 39 discriminator 1 view .LVU1141
 4217 049a 07AA     		add	r2, sp, #28
 4218 049c 0223     		movs	r3, #2
 4219 049e 94F82C10 		ldrb	r1, [r4, #44]	@ zero_extendqisi2
 4220              	.LBE1388:
 4221              	.LBE1387:
 4222              	.LBB1391:
 4223              	.LBB1385:
 343:./libDaisy//src/dev/mpr121.h **** 
 4224              		.loc 1 343 55 discriminator 1 view .LVU1142
 4225 04a2 0028     		cmp	r0, #0
 4226 04a4 18BF     		it	ne
 4227 04a6 4CF0010C 		orrne	ip, ip, #1
 4228              	.LBE1385:
 4229              	.LBE1391:
 4230              	.LBB1392:
 4231              	.LBB1389:
  73:./libDaisy//src/dev/mpr121.h ****     }
 4232              		.loc 1 73 39 discriminator 1 view .LVU1143
 4233 04aa 0096     		str	r6, [sp]
 4234 04ac 2048     		ldr	r0, .L119+88
 4235              	.LVL218:
  73:./libDaisy//src/dev/mpr121.h ****     }
 4236              		.loc 1 73 39 discriminator 1 view .LVU1144
 4237              	.LBE1389:
 4238              	.LBE1392:
 4239              	.LBB1393:
 4240              	.LBB1386:
 343:./libDaisy//src/dev/mpr121.h **** 
 4241              		.loc 1 343 55 discriminator 1 view .LVU1145
 4242 04ae 84F830C0 		strb	ip, [r4, #48]
 4243              	.LVL219:
 343:./libDaisy//src/dev/mpr121.h **** 
 4244              		.loc 1 343 55 discriminator 1 view .LVU1146
 4245              	.LBE1386:
 4246              	.LBE1393:
 4247              	.LBB1394:
 4248              	.LBI1387:
  70:./libDaisy//src/dev/mpr121.h ****     {
 4249              		.loc 1 70 10 is_stmt 1 discriminator 1 view .LVU1147
 4250              	.LBB1390:
  72:./libDaisy//src/dev/mpr121.h ****                != i2c_.ReceiveBlocking(config_.dev_addr, data, size, 10);
 4251              		.loc 1 72 9 discriminator 1 view .LVU1148
  73:./libDaisy//src/dev/mpr121.h ****     }
 4252              		.loc 1 73 39 is_stmt 0 discriminator 1 view .LVU1149
 4253 04b2 FFF7FEFF 		bl	_ZN5daisy9I2CHandle15ReceiveBlockingEtPhtm
 4254              	.LVL220:
ARM GAS  /var/folders/z2/7_lhr9dn53s9tj4s0rwtyswm0000gn/T//ccOZi2Cx.s 			page 120


  73:./libDaisy//src/dev/mpr121.h ****     }
 4255              		.loc 1 73 39 discriminator 1 view .LVU1150
 4256              	.LBE1390:
 4257              	.LBE1394:
 4258              	.LBB1395:
 4259              	.LBI1395:
 343:./libDaisy//src/dev/mpr121.h **** 
 4260              		.loc 1 343 10 is_stmt 1 discriminator 1 view .LVU1151
 4261              	.LBB1396:
 343:./libDaisy//src/dev/mpr121.h **** 
 4262              		.loc 1 343 55 is_stmt 0 discriminator 1 view .LVU1152
 4263 04b6 94F83020 		ldrb	r2, [r4, #48]	@ zero_extendqisi2
 4264              	.LBE1396:
 4265              	.LBE1395:
 250:./libDaisy//src/dev/mpr121.h ****     }
 4266              		.loc 1 250 16 discriminator 1 view .LVU1153
 4267 04ba BDF81C30 		ldrh	r3, [sp, #28]
 4268              	.LBB1399:
 4269              	.LBB1397:
 343:./libDaisy//src/dev/mpr121.h **** 
 4270              		.loc 1 343 55 discriminator 1 view .LVU1154
 4271 04be 0028     		cmp	r0, #0
 4272 04c0 18BF     		it	ne
 4273 04c2 42F00102 		orrne	r2, r2, #1
 4274              	.LBE1397:
 4275              	.LBE1399:
 4276              	.LBE1401:
 4277              	.LBE1377:
 224:./libDaisy//src/dev/mpr121.h ****     }
 4278              		.loc 1 224 20 discriminator 1 view .LVU1155
 4279 04c6 C3F30B03 		ubfx	r3, r3, #0, #12
 4280              	.LBB1403:
 4281              	.LBB1402:
 4282              	.LBB1400:
 4283              	.LBB1398:
 343:./libDaisy//src/dev/mpr121.h **** 
 4284              		.loc 1 343 55 discriminator 1 view .LVU1156
 4285 04ca 84F83020 		strb	r2, [r4, #48]
 4286              	.LVL221:
 343:./libDaisy//src/dev/mpr121.h **** 
 4287              		.loc 1 343 55 discriminator 1 view .LVU1157
 4288              	.LBE1398:
 4289              	.LBE1400:
 4290              	.LBE1402:
 4291              	.LBE1403:
 4292              	.LBE1376:
 4293              	.LBE1375:
 4294              		.loc 14 201 17 discriminator 1 view .LVU1158
 4295 04ce 2B80     		strh	r3, [r5]	@ movhi
 202:MPR121.cpp    ****         UpdateControls();
 4296              		.loc 14 202 9 is_stmt 1 discriminator 1 view .LVU1159
 4297              		.loc 14 202 23 is_stmt 0 discriminator 1 view .LVU1160
 4298 04d0 FFF7FEFF 		bl	_Z14UpdateControlsv
 4299              	.LVL222:
 200:MPR121.cpp    ****         touched = touch.Touched();
 4300              		.loc 14 200 2 is_stmt 1 discriminator 1 view .LVU1161
 4301 04d4 D2E7     		b	.L112
ARM GAS  /var/folders/z2/7_lhr9dn53s9tj4s0rwtyswm0000gn/T//ccOZi2Cx.s 			page 121


 4302              	.L120:
 4303 04d6 00BF     		.align	2
 4304              	.L119:
 4305 04d8 B8040000 		.word	aps+1208
 4306 04dc 00009841 		.word	1100480512
 4307 04e0 00003041 		.word	1093664768
 4308 04e4 00000000 		.word	.LANCHOR0
 4309 04e8 00000442 		.word	1107558400
 4310 04ec 0000C842 		.word	1120403456
 4311 04f0 00002442 		.word	1109655552
 4312 04f4 00803B47 		.word	1195081728
 4313 04f8 6C3B0000 		.word	ds+15212
 4314 04fc 0060A544 		.word	1151688704
 4315 0500 E0760000 		.word	ds+30432
 4316 0504 0060DE44 		.word	1155424256
 4317 0508 00000000 		.word	.LANCHOR7
 4318 050c 00B00000 		.word	ds+45056
 4319 0510 00505445 		.word	1163153408
 4320 0514 00701545 		.word	1159032832
 4321 0518 C8ED0000 		.word	ds+60872
 4322 051c 0000DC42 		.word	1121714176
 4323 0520 CDCC4C3D 		.word	1028443341
 4324 0524 00000000 		.word	.LANCHOR8
 4325 0528 00000000 		.word	.LANCHOR11
 4326 052c 00000000 		.word	_Z16NewAudioCallbackPKPKfPPfj
 4327 0530 18000000 		.word	.LANCHOR10+24
 4328 0534 3EC3AE37 		.word	934200126
 4329              		.cfi_endproc
 4330              	.LFE4760:
 4332              		.section	.text.startup._GLOBAL__sub_I_i2c,"ax",%progbits
 4333              		.align	1
 4334              		.p2align 2,,3
 4335              		.syntax unified
 4336              		.thumb
 4337              		.thumb_func
 4339              	_GLOBAL__sub_I_i2c:
 4340              	.LFB5348:
 203:MPR121.cpp    ****     }
 204:MPR121.cpp    **** }
 4341              		.loc 14 204 1 view -0
 4342              		.cfi_startproc
 4343              		@ args = 0, pretend = 0, frame = 0
 4344              		@ frame_needed = 0, uses_anonymous_args = 0
 4345              	.LBB1501:
 4346              	.LBI1501:
 4347              		.loc 14 204 1 view .LVU1163
 4348              	.LVL223:
 4349              	.LBB1502:
 4350              	.LBB1503:
 4351              	.LBI1503:
  20:./libDaisy//src/dev/mpr121.h ****     ~Mpr121I2CTransport() {}
 4352              		.loc 1 20 5 view .LVU1164
 4353              	.LBB1504:
 4354              	.LBB1505:
 4355              	.LBI1505:
  29:./libDaisy//src/per/i2c.h ****     {
  30:./libDaisy//src/per/i2c.h ****         /** Specifies whether the interface will operate in master or slave mode. */
ARM GAS  /var/folders/z2/7_lhr9dn53s9tj4s0rwtyswm0000gn/T//ccOZi2Cx.s 			page 122


  31:./libDaisy//src/per/i2c.h ****         enum class Mode
  32:./libDaisy//src/per/i2c.h ****         {
  33:./libDaisy//src/per/i2c.h ****             I2C_MASTER,
  34:./libDaisy//src/per/i2c.h ****             I2C_SLAVE,
  35:./libDaisy//src/per/i2c.h ****         };
  36:./libDaisy//src/per/i2c.h **** 
  37:./libDaisy//src/per/i2c.h ****         /** Specifices the internal peripheral to use (these are mapped to different pins on the ha
  38:./libDaisy//src/per/i2c.h ****         enum class Peripheral
  39:./libDaisy//src/per/i2c.h ****         {
  40:./libDaisy//src/per/i2c.h ****             I2C_1 = 0, /**< & */
  41:./libDaisy//src/per/i2c.h ****             I2C_2,     /**< & */
  42:./libDaisy//src/per/i2c.h ****             I2C_3,     /**< & */
  43:./libDaisy//src/per/i2c.h ****             I2C_4,     /**< & */
  44:./libDaisy//src/per/i2c.h ****         };
  45:./libDaisy//src/per/i2c.h **** 
  46:./libDaisy//src/per/i2c.h ****         /** Rate at which the clock/data will be sent/received. The device being used will have max
  47:./libDaisy//src/per/i2c.h ****          *  1MHZ Mode is currently 886kHz
  48:./libDaisy//src/per/i2c.h ****          */
  49:./libDaisy//src/per/i2c.h ****         enum class Speed
  50:./libDaisy//src/per/i2c.h ****         {
  51:./libDaisy//src/per/i2c.h ****             I2C_100KHZ, /**< & */
  52:./libDaisy//src/per/i2c.h ****             I2C_400KHZ, /**< & */
  53:./libDaisy//src/per/i2c.h ****             I2C_1MHZ,   /**< & */
  54:./libDaisy//src/per/i2c.h ****         };
  55:./libDaisy//src/per/i2c.h **** 
  56:./libDaisy//src/per/i2c.h ****         Peripheral periph; /**< & */
  57:./libDaisy//src/per/i2c.h ****         struct
  58:./libDaisy//src/per/i2c.h ****         {
  59:./libDaisy//src/per/i2c.h ****             dsy_gpio_pin scl; /**< & */
  60:./libDaisy//src/per/i2c.h ****             dsy_gpio_pin sda; /**< & */
  61:./libDaisy//src/per/i2c.h ****         } pin_config;         /**< & */
  62:./libDaisy//src/per/i2c.h **** 
  63:./libDaisy//src/per/i2c.h ****         Speed speed; /**< & */
  64:./libDaisy//src/per/i2c.h ****         Mode  mode;  /**< & */
  65:./libDaisy//src/per/i2c.h ****         // 0x10 is chosen as a default to avoid conflicts with reserved addresses
  66:./libDaisy//src/per/i2c.h ****         uint8_t address = 0x10; /**< & */
  67:./libDaisy//src/per/i2c.h ****     };
  68:./libDaisy//src/per/i2c.h **** 
  69:./libDaisy//src/per/i2c.h ****     /** Return values for I2C functions. */
  70:./libDaisy//src/per/i2c.h ****     enum class Result
  71:./libDaisy//src/per/i2c.h ****     {
  72:./libDaisy//src/per/i2c.h ****         OK, /**< & */
  73:./libDaisy//src/per/i2c.h ****         ERR /**< & */
  74:./libDaisy//src/per/i2c.h ****     };
  75:./libDaisy//src/per/i2c.h **** 
  76:./libDaisy//src/per/i2c.h ****     enum class Direction
  77:./libDaisy//src/per/i2c.h ****     {
  78:./libDaisy//src/per/i2c.h ****         TRANSMIT, /**< & */
  79:./libDaisy//src/per/i2c.h ****         RECEIVE,  /**< & */
  80:./libDaisy//src/per/i2c.h ****     };
  81:./libDaisy//src/per/i2c.h **** 
  82:./libDaisy//src/per/i2c.h ****     I2CHandle() : pimpl_(nullptr) {}
 4356              		.loc 19 82 5 view .LVU1165
 4357              		.loc 19 82 5 is_stmt 0 view .LVU1166
 4358              	.LBE1505:
 4359              	.LBB1508:
 4360              	.LBI1508:
ARM GAS  /var/folders/z2/7_lhr9dn53s9tj4s0rwtyswm0000gn/T//ccOZi2Cx.s 			page 123


  34:./libDaisy//src/dev/mpr121.h ****         {
 4361              		.loc 1 34 9 is_stmt 1 view .LVU1167
 4362              	.LBB1509:
 4363              	.LBB1510:
 4364              	.LBB1511:
 4365              	.LBI1511:
 272:./libDaisy//src/daisy_core.h **** 
 4366              		.loc 18 272 15 view .LVU1168
 272:./libDaisy//src/daisy_core.h **** 
 4367              		.loc 18 272 15 is_stmt 0 view .LVU1169
 4368              	.LBE1511:
 4369              	.LBB1512:
 4370              	.LBI1512:
 272:./libDaisy//src/daisy_core.h **** 
 4371              		.loc 18 272 15 is_stmt 1 view .LVU1170
 272:./libDaisy//src/daisy_core.h **** 
 4372              		.loc 18 272 15 is_stmt 0 view .LVU1171
 4373              	.LBE1512:
  36:./libDaisy//src/dev/mpr121.h ****             speed  = I2CHandle::Config::Speed::I2C_400KHZ;
 4374              		.loc 1 36 13 is_stmt 1 view .LVU1172
  37:./libDaisy//src/dev/mpr121.h **** 
 4375              		.loc 1 37 13 view .LVU1173
  39:./libDaisy//src/dev/mpr121.h ****             sda = Pin(PORTB, 9);
 4376              		.loc 1 39 13 view .LVU1174
 4377              	.LBB1513:
 4378              	.LBI1513:
 269:./libDaisy//src/daisy_core.h **** 
 4379              		.loc 18 269 15 view .LVU1175
 269:./libDaisy//src/daisy_core.h **** 
 4380              		.loc 18 269 15 is_stmt 0 view .LVU1176
 4381              	.LBE1513:
  40:./libDaisy//src/dev/mpr121.h **** 
 4382              		.loc 1 40 13 is_stmt 1 view .LVU1177
 4383              	.LBB1514:
 4384              	.LBI1514:
 269:./libDaisy//src/daisy_core.h **** 
 4385              		.loc 18 269 15 view .LVU1178
 269:./libDaisy//src/daisy_core.h **** 
 4386              		.loc 18 269 15 is_stmt 0 view .LVU1179
 4387              	.LBE1514:
  42:./libDaisy//src/dev/mpr121.h ****         }
 4388              		.loc 1 42 13 is_stmt 1 view .LVU1180
 4389              	.LBE1510:
 4390              	.LBE1509:
 4391              	.LBE1508:
 4392              	.LBE1504:
 4393              	.LBE1503:
 4394              	.LBE1502:
 4395              	.LBE1501:
 4396              		.loc 14 204 1 is_stmt 0 view .LVU1181
 4397 0000 2DE9F041 		push	{r4, r5, r6, r7, r8, lr}
 4398              		.cfi_def_cfa_offset 24
 4399              		.cfi_offset 4, -24
 4400              		.cfi_offset 5, -20
 4401              		.cfi_offset 6, -16
 4402              		.cfi_offset 7, -12
 4403              		.cfi_offset 8, -8
ARM GAS  /var/folders/z2/7_lhr9dn53s9tj4s0rwtyswm0000gn/T//ccOZi2Cx.s 			page 124


 4404              		.cfi_offset 14, -4
 4405              	.LBB1635:
 4406              	.LBB1633:
 4407              	.LBB1525:
 4408              	.LBB1522:
 4409              	.LBB1519:
 4410              	.LBB1506:
 4411              	.LBB1507:
 4412              		.loc 19 82 33 view .LVU1182
 4413 0004 2948     		ldr	r0, .L123
 4414 0006 0024     		movs	r4, #0
 4415              	.LBE1507:
 4416              	.LBE1506:
 4417              	.LBE1519:
 4418              	.LBB1520:
 4419              	.LBB1517:
 4420              	.LBB1515:
  37:./libDaisy//src/dev/mpr121.h **** 
 4421              		.loc 1 37 20 view .LVU1183
 4422 0008 4FF00108 		mov	r8, #1
 4423              	.LBE1515:
 4424              	.LBE1517:
 4425              	.LBE1520:
  20:./libDaisy//src/dev/mpr121.h ****     ~Mpr121I2CTransport() {}
 4426              		.loc 1 20 26 view .LVU1184
 4427 000c 284F     		ldr	r7, .L123+4
 4428 000e 5A26     		movs	r6, #90
 4429              	.LBE1522:
 4430              	.LBE1525:
  12:MPR121.cpp    **** Mpr121I2C touch;
 4431              		.loc 14 12 20 view .LVU1185
 4432 0010 284A     		ldr	r2, .L123+8
 4433 0012 2949     		ldr	r1, .L123+12
 4434              	.LBB1526:
 4435              	.LBB1523:
  20:./libDaisy//src/dev/mpr121.h ****     ~Mpr121I2CTransport() {}
 4436              		.loc 1 20 26 view .LVU1186
 4437 0014 4661     		str	r6, [r0, #20]
 4438              	.LVL224:
  20:./libDaisy//src/dev/mpr121.h ****     ~Mpr121I2CTransport() {}
 4439              		.loc 1 20 26 view .LVU1187
 4440              	.LBE1523:
 4441              	.LBE1526:
  22:MPR121.cpp    **** Oscillator lfo;
 4442              		.loc 14 22 12 view .LVU1188
 4443 0016 294D     		ldr	r5, .L123+16
 4444              	.LBB1527:
 4445              	.LBB1524:
 4446              	.LBB1521:
 4447              	.LBB1518:
 4448              	.LBB1516:
  36:./libDaisy//src/dev/mpr121.h ****             speed  = I2CHandle::Config::Speed::I2C_400KHZ;
 4449              		.loc 1 36 20 view .LVU1189
 4450 0018 C0E90044 		strd	r4, r4, [r0]
 4451              	.LBE1516:
 4452              	.LBE1518:
 4453              	.LBE1521:
ARM GAS  /var/folders/z2/7_lhr9dn53s9tj4s0rwtyswm0000gn/T//ccOZi2Cx.s 			page 125


  20:./libDaisy//src/dev/mpr121.h ****     ~Mpr121I2CTransport() {}
 4454              		.loc 1 20 26 view .LVU1190
 4455 001c C0E90287 		strd	r8, r7, [r0, #8]
 4456              	.LBE1524:
 4457              	.LBE1527:
  12:MPR121.cpp    **** Mpr121I2C touch;
 4458              		.loc 14 12 20 view .LVU1191
 4459 0020 FFF7FEFF 		bl	__aeabi_atexit
 4460              	.LVL225:
 4461              	.LBB1528:
 4462              	.LBI1528:
  90:./libDaisy//src/dev/mpr121.h ****     ~Mpr121() {}
 4463              		.loc 1 90 5 is_stmt 1 view .LVU1192
 4464              	.LBB1529:
 4465              	.LBB1530:
 4466              	.LBI1530:
  99:./libDaisy//src/dev/mpr121.h ****         {
 4467              		.loc 1 99 9 view .LVU1193
 4468              	.LBB1531:
 4469              	.LBB1532:
 4470              	.LBI1532:
  34:./libDaisy//src/dev/mpr121.h ****         {
 4471              		.loc 1 34 9 view .LVU1194
 4472              	.LBB1533:
 4473              	.LBB1534:
 4474              	.LBB1535:
 4475              	.LBI1535:
 272:./libDaisy//src/daisy_core.h **** 
 4476              		.loc 18 272 15 view .LVU1195
 272:./libDaisy//src/daisy_core.h **** 
 4477              		.loc 18 272 15 is_stmt 0 view .LVU1196
 4478              	.LBE1535:
 4479              	.LBB1536:
 4480              	.LBI1536:
 272:./libDaisy//src/daisy_core.h **** 
 4481              		.loc 18 272 15 is_stmt 1 view .LVU1197
 272:./libDaisy//src/daisy_core.h **** 
 4482              		.loc 18 272 15 is_stmt 0 view .LVU1198
 4483              	.LBE1536:
  36:./libDaisy//src/dev/mpr121.h ****             speed  = I2CHandle::Config::Speed::I2C_400KHZ;
 4484              		.loc 1 36 13 is_stmt 1 view .LVU1199
  37:./libDaisy//src/dev/mpr121.h **** 
 4485              		.loc 1 37 13 view .LVU1200
  39:./libDaisy//src/dev/mpr121.h ****             sda = Pin(PORTB, 9);
 4486              		.loc 1 39 13 view .LVU1201
 4487              	.LBB1537:
 4488              	.LBI1537:
 269:./libDaisy//src/daisy_core.h **** 
 4489              		.loc 18 269 15 view .LVU1202
 269:./libDaisy//src/daisy_core.h **** 
 4490              		.loc 18 269 15 is_stmt 0 view .LVU1203
 4491              	.LBE1537:
  40:./libDaisy//src/dev/mpr121.h **** 
 4492              		.loc 1 40 13 is_stmt 1 view .LVU1204
 4493              	.LBB1538:
 4494              	.LBI1538:
 269:./libDaisy//src/daisy_core.h **** 
ARM GAS  /var/folders/z2/7_lhr9dn53s9tj4s0rwtyswm0000gn/T//ccOZi2Cx.s 			page 126


 4495              		.loc 18 269 15 view .LVU1205
 269:./libDaisy//src/daisy_core.h **** 
 4496              		.loc 18 269 15 is_stmt 0 view .LVU1206
 4497              	.LBE1538:
  42:./libDaisy//src/dev/mpr121.h ****         }
 4498              		.loc 1 42 13 is_stmt 1 view .LVU1207
  42:./libDaisy//src/dev/mpr121.h ****         }
 4499              		.loc 1 42 13 is_stmt 0 view .LVU1208
 4500              	.LBE1534:
 4501              	.LBE1533:
 4502              	.LBE1532:
 4503              	.LBE1531:
 4504              	.LBE1530:
 4505              	.LBB1547:
 4506              	.LBI1547:
  20:./libDaisy//src/dev/mpr121.h ****     ~Mpr121I2CTransport() {}
 4507              		.loc 1 20 5 is_stmt 1 view .LVU1209
 4508              	.LBB1548:
 4509              	.LBB1549:
 4510              	.LBI1549:
 4511              		.loc 19 82 5 view .LVU1210
 4512              		.loc 19 82 5 is_stmt 0 view .LVU1211
 4513              	.LBE1549:
 4514              	.LBB1550:
 4515              	.LBI1550:
  34:./libDaisy//src/dev/mpr121.h ****         {
 4516              		.loc 1 34 9 is_stmt 1 view .LVU1212
 4517              	.LBB1551:
 4518              	.LBB1552:
 4519              	.LBB1553:
 4520              	.LBI1553:
 272:./libDaisy//src/daisy_core.h **** 
 4521              		.loc 18 272 15 view .LVU1213
 272:./libDaisy//src/daisy_core.h **** 
 4522              		.loc 18 272 15 is_stmt 0 view .LVU1214
 4523              	.LBE1553:
 4524              	.LBB1554:
 4525              	.LBI1554:
 272:./libDaisy//src/daisy_core.h **** 
 4526              		.loc 18 272 15 is_stmt 1 view .LVU1215
 272:./libDaisy//src/daisy_core.h **** 
 4527              		.loc 18 272 15 is_stmt 0 view .LVU1216
 4528              	.LBE1554:
  36:./libDaisy//src/dev/mpr121.h ****             speed  = I2CHandle::Config::Speed::I2C_400KHZ;
 4529              		.loc 1 36 13 is_stmt 1 view .LVU1217
  37:./libDaisy//src/dev/mpr121.h **** 
 4530              		.loc 1 37 13 view .LVU1218
  39:./libDaisy//src/dev/mpr121.h ****             sda = Pin(PORTB, 9);
 4531              		.loc 1 39 13 view .LVU1219
 4532              	.LBB1555:
 4533              	.LBI1555:
 269:./libDaisy//src/daisy_core.h **** 
 4534              		.loc 18 269 15 view .LVU1220
 269:./libDaisy//src/daisy_core.h **** 
 4535              		.loc 18 269 15 is_stmt 0 view .LVU1221
 4536              	.LBE1555:
  40:./libDaisy//src/dev/mpr121.h **** 
ARM GAS  /var/folders/z2/7_lhr9dn53s9tj4s0rwtyswm0000gn/T//ccOZi2Cx.s 			page 127


 4537              		.loc 1 40 13 is_stmt 1 view .LVU1222
 4538              	.LBB1556:
 4539              	.LBI1556:
 269:./libDaisy//src/daisy_core.h **** 
 4540              		.loc 18 269 15 view .LVU1223
 269:./libDaisy//src/daisy_core.h **** 
 4541              		.loc 18 269 15 is_stmt 0 view .LVU1224
 4542              	.LBE1556:
  42:./libDaisy//src/dev/mpr121.h ****         }
 4543              		.loc 1 42 13 is_stmt 1 view .LVU1225
 4544              	.LBE1552:
 4545              	.LBE1551:
 4546              	.LBE1550:
 4547              	.LBE1548:
 4548              	.LBE1547:
 4549              	.LBB1565:
 4550              	.LBB1545:
 4551              	.LBB1543:
 4552              	.LBB1541:
 4553              	.LBB1539:
  36:./libDaisy//src/dev/mpr121.h ****             speed  = I2CHandle::Config::Speed::I2C_400KHZ;
 4554              		.loc 1 36 20 is_stmt 0 view .LVU1226
 4555 0024 2648     		ldr	r0, .L123+20
 4556              	.LBE1539:
 4557              	.LBE1541:
 4558              	.LBE1543:
 4559              	.LBE1545:
 4560              	.LBE1565:
  90:./libDaisy//src/dev/mpr121.h ****     ~Mpr121() {}
 4561              		.loc 1 90 5 view .LVU1227
 4562 0026 40F20C63 		movw	r3, #1548
 4563              	.LBE1529:
 4564              	.LBE1528:
  13:MPR121.cpp    **** Tusenskona hw;
 4565              		.loc 14 13 11 view .LVU1228
 4566 002a 224A     		ldr	r2, .L123+8
 4567 002c 2549     		ldr	r1, .L123+24
 4568              	.LBB1570:
 4569              	.LBB1569:
  90:./libDaisy//src/dev/mpr121.h ****     ~Mpr121() {}
 4570              		.loc 1 90 5 view .LVU1229
 4571 002e 4361     		str	r3, [r0, #20]
 4572              	.LBB1566:
 4573              	.LBB1563:
 4574              	.LBB1561:
 4575              	.LBB1559:
 4576              	.LBB1557:
  37:./libDaisy//src/dev/mpr121.h **** 
 4577              		.loc 1 37 20 view .LVU1230
 4578 0030 C0F82080 		str	r8, [r0, #32]
 4579              	.LBE1557:
 4580              	.LBE1559:
 4581              	.LBE1561:
 4582              	.LBE1563:
 4583              	.LBE1566:
  90:./libDaisy//src/dev/mpr121.h ****     ~Mpr121() {}
 4584              		.loc 1 90 5 view .LVU1231
ARM GAS  /var/folders/z2/7_lhr9dn53s9tj4s0rwtyswm0000gn/T//ccOZi2Cx.s 			page 128


 4585 0034 8760     		str	r7, [r0, #8]
 4586 0036 4762     		str	r7, [r0, #36]
 4587 0038 0661     		str	r6, [r0, #16]
 4588 003a C662     		str	r6, [r0, #44]
 4589              	.LVL226:
 4590              	.LBB1567:
 4591              	.LBB1546:
 4592              	.LBB1544:
 4593              	.LBB1542:
 4594              	.LBB1540:
  37:./libDaisy//src/dev/mpr121.h **** 
 4595              		.loc 1 37 20 view .LVU1232
 4596 003c C0E90048 		strd	r4, r8, [r0]
 4597              	.LBE1540:
 4598              	.LBE1542:
 4599              	.LBE1544:
 4600              	.LBE1546:
 4601              	.LBE1567:
 4602              	.LBB1568:
 4603              	.LBB1564:
 4604              	.LBB1562:
 4605              	.LBB1560:
 4606              	.LBB1558:
  36:./libDaisy//src/dev/mpr121.h ****             speed  = I2CHandle::Config::Speed::I2C_400KHZ;
 4607              		.loc 1 36 20 view .LVU1233
 4608 0040 C0E90644 		strd	r4, r4, [r0, #24]
 4609              	.LBE1558:
 4610              	.LBE1560:
 4611              	.LBE1562:
 4612              	.LBE1564:
 4613              	.LBE1568:
 4614              	.LBE1569:
 4615              	.LBE1570:
  13:MPR121.cpp    **** Tusenskona hw;
 4616              		.loc 14 13 11 view .LVU1234
 4617 0044 FFF7FEFF 		bl	__aeabi_atexit
 4618              	.LVL227:
 4619              	.LBB1571:
 4620              	.LBI1571:
  30:tusenskona/src/tusenskona.h ****     ~Tusenskona() {}
 4621              		.loc 2 30 5 is_stmt 1 view .LVU1235
 4622              	.LBB1572:
 4623              	.LBB1573:
 4624              	.LBI1573:
  21:./libDaisy//src/daisy_seed.h ****     ~DaisySeed() {}
 4625              		.loc 8 21 5 view .LVU1236
 4626              	.LBB1574:
 4627              	.LBB1575:
 4628              	.LBI1575:
 4629              		.file 20 "./libDaisy//src/per/qspi.h"
   1:./libDaisy//src/per/qspi.h **** #ifndef DSY_QSPI
   2:./libDaisy//src/per/qspi.h **** #define DSY_QSPI /**< Macro */
   3:./libDaisy//src/per/qspi.h **** 
   4:./libDaisy//src/per/qspi.h **** #ifndef UNIT_TEST // for unit tests, a dummy implementation
   5:./libDaisy//src/per/qspi.h **** 
   6:./libDaisy//src/per/qspi.h **** #include <cstdint>
   7:./libDaisy//src/per/qspi.h **** #include "daisy_core.h" // Added for dsy_gpio_pin typedef
ARM GAS  /var/folders/z2/7_lhr9dn53s9tj4s0rwtyswm0000gn/T//ccOZi2Cx.s 			page 129


   8:./libDaisy//src/per/qspi.h **** 
   9:./libDaisy//src/per/qspi.h **** #define DSY_QSPI_TEXT       \
  10:./libDaisy//src/per/qspi.h ****     __attribute__((section( \
  11:./libDaisy//src/per/qspi.h ****         ".qspiflash_text"))) /**< used for reading memory in memory_mapped mode. */
  12:./libDaisy//src/per/qspi.h **** #define DSY_QSPI_DATA       \
  13:./libDaisy//src/per/qspi.h ****     __attribute__((section( \
  14:./libDaisy//src/per/qspi.h ****         ".qspiflash_data"))) /**< used for reading memory in memory_mapped mode. */
  15:./libDaisy//src/per/qspi.h **** #define DSY_QSPI_BSS        \
  16:./libDaisy//src/per/qspi.h ****     __attribute__((section( \
  17:./libDaisy//src/per/qspi.h ****         ".qspiflash_bss"))) /**< used for reading memory in memory_mapped mode. */
  18:./libDaisy//src/per/qspi.h **** 
  19:./libDaisy//src/per/qspi.h **** namespace daisy
  20:./libDaisy//src/per/qspi.h **** {
  21:./libDaisy//src/per/qspi.h **** /** @addtogroup serial
  22:./libDaisy//src/per/qspi.h **** @{
  23:./libDaisy//src/per/qspi.h **** */
  24:./libDaisy//src/per/qspi.h **** 
  25:./libDaisy//src/per/qspi.h **** /** 
  26:./libDaisy//src/per/qspi.h ****  Driver for QSPI peripheral to interface with external flash memory. \n 
  27:./libDaisy//src/per/qspi.h ****     Currently supported QSPI Devices: \n 
  28:./libDaisy//src/per/qspi.h ****     * IS25LP080D
  29:./libDaisy//src/per/qspi.h **** */
  30:./libDaisy//src/per/qspi.h **** class QSPIHandle
  31:./libDaisy//src/per/qspi.h **** {
  32:./libDaisy//src/per/qspi.h ****   public:
  33:./libDaisy//src/per/qspi.h ****     enum Result
  34:./libDaisy//src/per/qspi.h ****     {
  35:./libDaisy//src/per/qspi.h ****         OK = 0,
  36:./libDaisy//src/per/qspi.h ****         ERR
  37:./libDaisy//src/per/qspi.h ****     };
  38:./libDaisy//src/per/qspi.h **** 
  39:./libDaisy//src/per/qspi.h ****     /** Indicates the current status of the module. 
  40:./libDaisy//src/per/qspi.h ****          *  Warnings are indicated by a leading W.
  41:./libDaisy//src/per/qspi.h ****          *  Errors are indicated by a leading E and cause an immediate exit.
  42:./libDaisy//src/per/qspi.h ****          * 
  43:./libDaisy//src/per/qspi.h ****          *  \param GOOD - No errors have been reported.
  44:./libDaisy//src/per/qspi.h ****          *  \param E_HAL_ERROR - HAL code did not return HAL_OK.
  45:./libDaisy//src/per/qspi.h ****          *  \param E_SWITCHING_MODES - An error was encountered while switching QSPI peripheral mod
  46:./libDaisy//src/per/qspi.h ****          *  \param E_INVALID_MODE - QSPI should not be written to while the program is executing fr
  47:./libDaisy//src/per/qspi.h ****          */
  48:./libDaisy//src/per/qspi.h ****     enum Status
  49:./libDaisy//src/per/qspi.h ****     {
  50:./libDaisy//src/per/qspi.h ****         GOOD = 0,
  51:./libDaisy//src/per/qspi.h ****         E_HAL_ERROR,
  52:./libDaisy//src/per/qspi.h ****         E_SWITCHING_MODES,
  53:./libDaisy//src/per/qspi.h ****         E_INVALID_MODE,
  54:./libDaisy//src/per/qspi.h ****     };
  55:./libDaisy//src/per/qspi.h **** 
  56:./libDaisy//src/per/qspi.h ****     /** Configuration structure for interfacing with QSPI Driver */
  57:./libDaisy//src/per/qspi.h ****     struct Config
  58:./libDaisy//src/per/qspi.h ****     {
  59:./libDaisy//src/per/qspi.h ****         /** Flash Devices supported. (Both of these are more-or-less the same, just different sizes
  60:./libDaisy//src/per/qspi.h ****         enum Device
  61:./libDaisy//src/per/qspi.h ****         {
  62:./libDaisy//src/per/qspi.h ****             IS25LP080D,  /**< & */
  63:./libDaisy//src/per/qspi.h ****             IS25LP064A,  /**< & */
  64:./libDaisy//src/per/qspi.h ****             DEVICE_LAST, /**< & */
ARM GAS  /var/folders/z2/7_lhr9dn53s9tj4s0rwtyswm0000gn/T//ccOZi2Cx.s 			page 130


  65:./libDaisy//src/per/qspi.h ****         };
  66:./libDaisy//src/per/qspi.h **** 
  67:./libDaisy//src/per/qspi.h ****         /** 
  68:./libDaisy//src/per/qspi.h ****         Modes of operation.
  69:./libDaisy//src/per/qspi.h ****         Memory Mapped mode: QSPI configured so that the QSPI can be
  70:./libDaisy//src/per/qspi.h ****         read from starting address 0x90000000. Writing is not
  71:./libDaisy//src/per/qspi.h ****         possible in this mode. \n 
  72:./libDaisy//src/per/qspi.h ****         Indirect Polling mode: Device driver enabled. 
  73:./libDaisy//src/per/qspi.h ****         */
  74:./libDaisy//src/per/qspi.h ****         enum Mode
  75:./libDaisy//src/per/qspi.h ****         {
  76:./libDaisy//src/per/qspi.h ****             MEMORY_MAPPED,    /**< & */
  77:./libDaisy//src/per/qspi.h ****             INDIRECT_POLLING, /**< & */
  78:./libDaisy//src/per/qspi.h ****             MODE_LAST,
  79:./libDaisy//src/per/qspi.h ****         };
  80:./libDaisy//src/per/qspi.h **** 
  81:./libDaisy//src/per/qspi.h ****         //SCK,  CE# (active low)
  82:./libDaisy//src/per/qspi.h ****         struct
  83:./libDaisy//src/per/qspi.h ****         {
  84:./libDaisy//src/per/qspi.h ****             dsy_gpio_pin io0; /**< & */
  85:./libDaisy//src/per/qspi.h ****             dsy_gpio_pin io1; /**< & */
  86:./libDaisy//src/per/qspi.h ****             dsy_gpio_pin io2; /**< & */
  87:./libDaisy//src/per/qspi.h ****             dsy_gpio_pin io3; /**< & */
  88:./libDaisy//src/per/qspi.h ****             dsy_gpio_pin clk; /**< & */
  89:./libDaisy//src/per/qspi.h ****             dsy_gpio_pin ncs; /**< & */
  90:./libDaisy//src/per/qspi.h ****         } pin_config;
  91:./libDaisy//src/per/qspi.h **** 
  92:./libDaisy//src/per/qspi.h ****         Device device;
  93:./libDaisy//src/per/qspi.h ****         Mode   mode;
  94:./libDaisy//src/per/qspi.h ****     };
  95:./libDaisy//src/per/qspi.h **** 
  96:./libDaisy//src/per/qspi.h ****     /** 
  97:./libDaisy//src/per/qspi.h ****         Initializes QSPI peripheral, and Resets, and prepares memory for access.
  98:./libDaisy//src/per/qspi.h ****         \param config should be populated with the mode, device and pin_config before calling this 
  99:./libDaisy//src/per/qspi.h ****         \return Result::OK or Result::ERR
 100:./libDaisy//src/per/qspi.h ****         */
 101:./libDaisy//src/per/qspi.h ****     Result Init(const Config& config);
 102:./libDaisy//src/per/qspi.h **** 
 103:./libDaisy//src/per/qspi.h ****     /** Returns the current config. */
 104:./libDaisy//src/per/qspi.h ****     const Config& GetConfig() const;
 105:./libDaisy//src/per/qspi.h **** 
 106:./libDaisy//src/per/qspi.h ****     // Couldn't this just be called before anything else in init? That
 107:./libDaisy//src/per/qspi.h ****     // would make manually calling it unnecessary.
 108:./libDaisy//src/per/qspi.h ****     /** 
 109:./libDaisy//src/per/qspi.h ****         Deinitializes the peripheral
 110:./libDaisy//src/per/qspi.h ****         This should be called before reinitializing QSPI in a different mode.
 111:./libDaisy//src/per/qspi.h ****         \return Result::OK or Result::ERR
 112:./libDaisy//src/per/qspi.h ****         */
 113:./libDaisy//src/per/qspi.h ****     Result DeInit();
 114:./libDaisy//src/per/qspi.h **** 
 115:./libDaisy//src/per/qspi.h ****     /** 
 116:./libDaisy//src/per/qspi.h ****         Writes a single page to to the specified address on the QSPI chip.
 117:./libDaisy//src/per/qspi.h ****         For IS25LP*, page size is 256 bytes.
 118:./libDaisy//src/per/qspi.h ****         \param address Address to write to
 119:./libDaisy//src/per/qspi.h ****         \param size Buffer size
 120:./libDaisy//src/per/qspi.h ****         \param buffer Buffer to write
 121:./libDaisy//src/per/qspi.h ****         \return Result::OK or Result::ERR
ARM GAS  /var/folders/z2/7_lhr9dn53s9tj4s0rwtyswm0000gn/T//ccOZi2Cx.s 			page 131


 122:./libDaisy//src/per/qspi.h ****         */
 123:./libDaisy//src/per/qspi.h ****     Result WritePage(uint32_t address, uint32_t size, uint8_t* buffer);
 124:./libDaisy//src/per/qspi.h **** 
 125:./libDaisy//src/per/qspi.h ****     /** 
 126:./libDaisy//src/per/qspi.h ****         Writes data in buffer to to the QSPI. Starting at address to address+size 
 127:./libDaisy//src/per/qspi.h ****         \param address Address to write to
 128:./libDaisy//src/per/qspi.h ****         \param size Buffer size
 129:./libDaisy//src/per/qspi.h ****         \param buffer Buffer to write
 130:./libDaisy//src/per/qspi.h ****         \return Result::OK or Result::ERR
 131:./libDaisy//src/per/qspi.h ****         */
 132:./libDaisy//src/per/qspi.h ****     Result Write(uint32_t address, uint32_t size, uint8_t* buffer);
 133:./libDaisy//src/per/qspi.h **** 
 134:./libDaisy//src/per/qspi.h ****     /** 
 135:./libDaisy//src/per/qspi.h ****         Erases the area specified on the chip.
 136:./libDaisy//src/per/qspi.h ****         Erasures will happen by 4K, 32K or 64K increments.
 137:./libDaisy//src/per/qspi.h ****         Smallest erase possible is 4kB at a time. (on IS25LP*)
 138:./libDaisy//src/per/qspi.h ****         \param start_addr Address to begin erasing from
 139:./libDaisy//src/per/qspi.h ****         \param end_addr  Address to stop erasing at
 140:./libDaisy//src/per/qspi.h ****         \return Result::OK or Result::ERR
 141:./libDaisy//src/per/qspi.h ****         */
 142:./libDaisy//src/per/qspi.h ****     Result Erase(uint32_t start_addr, uint32_t end_addr);
 143:./libDaisy//src/per/qspi.h **** 
 144:./libDaisy//src/per/qspi.h ****     /**  
 145:./libDaisy//src/per/qspi.h ****          Erases a single sector of the chip.  
 146:./libDaisy//src/per/qspi.h ****         TODO: Document the size of this function. 
 147:./libDaisy//src/per/qspi.h ****         \param address Address of sector to erase
 148:./libDaisy//src/per/qspi.h ****         \return Result::OK or Result::ERR
 149:./libDaisy//src/per/qspi.h ****         */
 150:./libDaisy//src/per/qspi.h ****     Result EraseSector(uint32_t address);
 151:./libDaisy//src/per/qspi.h **** 
 152:./libDaisy//src/per/qspi.h ****     /** Returns the current class status. Useful for debugging.
 153:./libDaisy//src/per/qspi.h ****      *  \returns Status
 154:./libDaisy//src/per/qspi.h ****      */
 155:./libDaisy//src/per/qspi.h ****     Status GetStatus();
 156:./libDaisy//src/per/qspi.h **** 
 157:./libDaisy//src/per/qspi.h ****     /** Returns a pointer to the actual memory used 
 158:./libDaisy//src/per/qspi.h ****      *  The memory at this address is read-only
 159:./libDaisy//src/per/qspi.h ****      *  to write to it use the Write function.
 160:./libDaisy//src/per/qspi.h ****      * 
 161:./libDaisy//src/per/qspi.h ****      *  \param offset returns the pointer starting this 
 162:./libDaisy//src/per/qspi.h ****      *                many bytes into the memory
 163:./libDaisy//src/per/qspi.h ****     */
 164:./libDaisy//src/per/qspi.h ****     void* GetData(uint32_t offset = 0);
 165:./libDaisy//src/per/qspi.h **** 
 166:./libDaisy//src/per/qspi.h ****     QSPIHandle() : pimpl_(nullptr) {}
 4630              		.loc 20 166 5 view .LVU1237
 4631              	.LBB1576:
 4632              	.LBB1577:
 4633              		.loc 20 166 34 is_stmt 0 view .LVU1238
 4634 0048 1F48     		ldr	r0, .L123+28
 4635              	.LBE1577:
 4636              	.LBE1576:
 4637              	.LBE1575:
 4638              	.LBE1574:
 4639              	.LBE1573:
 4640              	.LBE1572:
 4641              	.LBE1571:
ARM GAS  /var/folders/z2/7_lhr9dn53s9tj4s0rwtyswm0000gn/T//ccOZi2Cx.s 			page 132


  14:MPR121.cpp    **** 
 4642              		.loc 14 14 12 view .LVU1239
 4643 004a 1A4A     		ldr	r2, .L123+8
 4644 004c 1F49     		ldr	r1, .L123+32
 4645              	.LBB1610:
 4646              	.LBB1609:
 4647              	.LBB1594:
 4648              	.LBB1593:
 4649              	.LBB1580:
 4650              	.LBB1579:
 4651              	.LBB1578:
 4652              		.loc 20 166 34 view .LVU1240
 4653 004e 0460     		str	r4, [r0]
 4654              	.LVL228:
 4655              		.loc 20 166 34 view .LVU1241
 4656              	.LBE1578:
 4657              	.LBE1579:
 4658              	.LBE1580:
 4659              	.LBB1581:
 4660              	.LBI1581:
  95:./libDaisy//src/hid/audio.h ****     ~AudioHandle() {}
 4661              		.loc 12 95 5 is_stmt 1 view .LVU1242
 4662              	.LBB1582:
 4663              	.LBB1583:
  95:./libDaisy//src/hid/audio.h ****     ~AudioHandle() {}
 4664              		.loc 12 95 35 is_stmt 0 view .LVU1243
 4665 0050 4461     		str	r4, [r0, #20]
 4666              	.LVL229:
  95:./libDaisy//src/hid/audio.h ****     ~AudioHandle() {}
 4667              		.loc 12 95 35 view .LVU1244
 4668              	.LBE1583:
 4669              	.LBE1582:
 4670              	.LBE1581:
 4671              	.LBB1584:
 4672              	.LBI1584:
 109:./libDaisy//src/per/adc.h ****     ~AdcHandle() {}
 4673              		.loc 11 109 5 is_stmt 1 view .LVU1245
 109:./libDaisy//src/per/adc.h ****     ~AdcHandle() {}
 4674              		.loc 11 109 5 is_stmt 0 view .LVU1246
 4675              	.LBE1584:
 4676              	.LBB1585:
 4677              	.LBI1585:
 4678              		.file 21 "./libDaisy//src/per/dac.h"
   1:./libDaisy//src/per/dac.h **** #pragma once
   2:./libDaisy//src/per/dac.h **** #ifndef DSY_DAC_H
   3:./libDaisy//src/per/dac.h **** #define DSY_DAC_H
   4:./libDaisy//src/per/dac.h **** 
   5:./libDaisy//src/per/dac.h **** #include "daisy_core.h"
   6:./libDaisy//src/per/dac.h **** 
   7:./libDaisy//src/per/dac.h **** namespace daisy
   8:./libDaisy//src/per/dac.h **** {
   9:./libDaisy//src/per/dac.h **** /** @brief DAC handle for Built-in DAC Peripheral 
  10:./libDaisy//src/per/dac.h ****  *  @ingroup per_analog
  11:./libDaisy//src/per/dac.h ****  ** 
  12:./libDaisy//src/per/dac.h ****  ** For now only Normal Mode is supported,
  13:./libDaisy//src/per/dac.h ****  ** Sample and hold mode provides reduced power consumption, but requires a bit more setup.
  14:./libDaisy//src/per/dac.h ****  **
ARM GAS  /var/folders/z2/7_lhr9dn53s9tj4s0rwtyswm0000gn/T//ccOZi2Cx.s 			page 133


  15:./libDaisy//src/per/dac.h ****  ** For now connecting the DAC through other internal peripherals is also not supported.
  16:./libDaisy//src/per/dac.h ****  **
  17:./libDaisy//src/per/dac.h ****  ** Since the DAC channels have dedicated pins we don't need to pass in a pin config like with
  18:./libDaisy//src/per/dac.h ****  ** other modules. However, it is still important to not try to use the DAC pins for anything else.
  19:./libDaisy//src/per/dac.h ****  ** DAC Channel 1 is on PA4, and DAC Channel 2 is on PA5
  20:./libDaisy//src/per/dac.h ****  ***/
  21:./libDaisy//src/per/dac.h **** class DacHandle
  22:./libDaisy//src/per/dac.h **** {
  23:./libDaisy//src/per/dac.h ****   public:
  24:./libDaisy//src/per/dac.h ****     /** Return Values for the DacHandle class */
  25:./libDaisy//src/per/dac.h ****     enum class Result
  26:./libDaisy//src/per/dac.h ****     {
  27:./libDaisy//src/per/dac.h ****         OK,
  28:./libDaisy//src/per/dac.h ****         ERR,
  29:./libDaisy//src/per/dac.h ****     };
  30:./libDaisy//src/per/dac.h **** 
  31:./libDaisy//src/per/dac.h ****     /** Selects which channel(s) will be configured for use. */
  32:./libDaisy//src/per/dac.h ****     enum class Channel
  33:./libDaisy//src/per/dac.h ****     {
  34:./libDaisy//src/per/dac.h ****         ONE,
  35:./libDaisy//src/per/dac.h ****         TWO,
  36:./libDaisy//src/per/dac.h ****         BOTH,
  37:./libDaisy//src/per/dac.h ****     };
  38:./libDaisy//src/per/dac.h **** 
  39:./libDaisy//src/per/dac.h ****     /** Sets the Mode for the DAC channels.
  40:./libDaisy//src/per/dac.h ****      **
  41:./libDaisy//src/per/dac.h ****      ** Polling mode uses the blocking mode to transmit a single value at a time.
  42:./libDaisy//src/per/dac.h ****      **
  43:./libDaisy//src/per/dac.h ****      ** DMA mode uses a buffer, and periodically transmits it triggering a 
  44:./libDaisy//src/per/dac.h ****      ** callback to fill the buffer when it is ready for more samples.
  45:./libDaisy//src/per/dac.h ****      ***/
  46:./libDaisy//src/per/dac.h ****     enum class Mode
  47:./libDaisy//src/per/dac.h ****     {
  48:./libDaisy//src/per/dac.h ****         POLLING,
  49:./libDaisy//src/per/dac.h ****         DMA,
  50:./libDaisy//src/per/dac.h ****     };
  51:./libDaisy//src/per/dac.h **** 
  52:./libDaisy//src/per/dac.h ****     /** Sets the number of bits per sample transmitted out of the DAC.
  53:./libDaisy//src/per/dac.h ****      ** The output range will be: 0V - VDDA
  54:./libDaisy//src/per/dac.h ****      ** The resolution will be roughly: bitdepth / (VDDA - 0V) 
  55:./libDaisy//src/per/dac.h ****      ***/
  56:./libDaisy//src/per/dac.h ****     enum class BitDepth
  57:./libDaisy//src/per/dac.h ****     {
  58:./libDaisy//src/per/dac.h ****         BITS_8,
  59:./libDaisy//src/per/dac.h ****         BITS_12
  60:./libDaisy//src/per/dac.h ****     };
  61:./libDaisy//src/per/dac.h **** 
  62:./libDaisy//src/per/dac.h ****     /** Sets whether the DAC output is buffered for higher drive ability. */
  63:./libDaisy//src/per/dac.h ****     enum class BufferState
  64:./libDaisy//src/per/dac.h ****     {
  65:./libDaisy//src/per/dac.h ****         ENABLED,
  66:./libDaisy//src/per/dac.h ****         DISABLED,
  67:./libDaisy//src/per/dac.h ****     };
  68:./libDaisy//src/per/dac.h **** 
  69:./libDaisy//src/per/dac.h ****     /** Configuration structure for initializing the DAC structure. */
  70:./libDaisy//src/per/dac.h ****     struct Config
  71:./libDaisy//src/per/dac.h ****     {
ARM GAS  /var/folders/z2/7_lhr9dn53s9tj4s0rwtyswm0000gn/T//ccOZi2Cx.s 			page 134


  72:./libDaisy//src/per/dac.h ****         /** Target Samplerate in Hz used to configure the internal 
  73:./libDaisy//src/per/dac.h ****          ** timebase for DMA mode. Does nothing in POLLING mode.
  74:./libDaisy//src/per/dac.h ****          ** If the value is 0 at Init time this will default to 48000Hz 
  75:./libDaisy//src/per/dac.h ****          ** otherwise the driver will attempt meet the target.*/
  76:./libDaisy//src/per/dac.h ****         uint32_t target_samplerate;
  77:./libDaisy//src/per/dac.h **** 
  78:./libDaisy//src/per/dac.h ****         Channel     chn;
  79:./libDaisy//src/per/dac.h ****         Mode        mode;
  80:./libDaisy//src/per/dac.h ****         BitDepth    bitdepth;
  81:./libDaisy//src/per/dac.h ****         BufferState buff_state;
  82:./libDaisy//src/per/dac.h ****     };
  83:./libDaisy//src/per/dac.h **** 
  84:./libDaisy//src/per/dac.h ****     DacHandle() : pimpl_(nullptr) {}
 4679              		.loc 21 84 5 is_stmt 1 view .LVU1247
 4680              	.LBB1586:
 4681              	.LBB1587:
 4682              		.loc 21 84 33 is_stmt 0 view .LVU1248
 4683 0052 0462     		str	r4, [r0, #32]
 4684              	.LVL230:
 4685              		.loc 21 84 33 view .LVU1249
 4686              	.LBE1587:
 4687              	.LBE1586:
 4688              	.LBE1585:
 4689              	.LBB1588:
 4690              	.LBI1588:
  40:./libDaisy//src/hid/usb.h **** 
 4691              		.loc 10 40 5 is_stmt 1 view .LVU1250
  40:./libDaisy//src/hid/usb.h **** 
 4692              		.loc 10 40 5 is_stmt 0 view .LVU1251
 4693              	.LBE1588:
 4694              	.LBB1589:
 4695              	.LBI1589:
  96:./libDaisy//src/sys/system.h ****     ~System() {}
 4696              		.loc 9 96 5 is_stmt 1 view .LVU1252
  96:./libDaisy//src/sys/system.h ****     ~System() {}
 4697              		.loc 9 96 5 is_stmt 0 view .LVU1253
 4698              	.LBE1589:
 4699              	.LBB1590:
 4700              	.LBI1590:
 4701              		.file 22 "./libDaisy//src/per/sai.h"
   1:./libDaisy//src/per/sai.h **** #pragma once
   2:./libDaisy//src/per/sai.h **** #ifndef DSY_SAI_H
   3:./libDaisy//src/per/sai.h **** #define DSY_SAI_H
   4:./libDaisy//src/per/sai.h **** 
   5:./libDaisy//src/per/sai.h **** #include "daisy_core.h"
   6:./libDaisy//src/per/sai.h **** 
   7:./libDaisy//src/per/sai.h **** namespace daisy
   8:./libDaisy//src/per/sai.h **** {
   9:./libDaisy//src/per/sai.h **** /** 
  10:./libDaisy//src/per/sai.h ****  * Support for I2S Audio Protocol with different bit-depth, samplerate options
  11:./libDaisy//src/per/sai.h ****  * Allows for master or slave, as well as freedom of selecting direction, 
  12:./libDaisy//src/per/sai.h ****  * and other behavior for each peripheral, and block.
  13:./libDaisy//src/per/sai.h ****  * 
  14:./libDaisy//src/per/sai.h ****  * DMA Transfer commands must use buffers located within non-cached memory or use cache maintenance
  15:./libDaisy//src/per/sai.h ****  * To declare an unitialized global element in the DMA memory section:
  16:./libDaisy//src/per/sai.h ****  *    int32_t DSY_DMA_BUFFER_SECTOR my_buffer[96];
  17:./libDaisy//src/per/sai.h ****  *
ARM GAS  /var/folders/z2/7_lhr9dn53s9tj4s0rwtyswm0000gn/T//ccOZi2Cx.s 			page 135


  18:./libDaisy//src/per/sai.h ****  * Callback functions will be called once per half of the buffer. In the above example, 
  19:./libDaisy//src/per/sai.h ****  * the callback function would be called once for every 48 samples.
  20:./libDaisy//src/per/sai.h ****  * 
  21:./libDaisy//src/per/sai.h ****  * Use SAI Handle like this:
  22:./libDaisy//src/per/sai.h ****  * 
  23:./libDaisy//src/per/sai.h ****  *  SaiHandle::Config sai_config;
  24:./libDaisy//src/per/sai.h ****  *  sai_config.periph          = SaiHandle::Config::Peripheral::SAI_1;
  25:./libDaisy//src/per/sai.h ****  *  sai_config.sr              = SaiHandle::Config::SampleRate::SAI_48KHZ;
  26:./libDaisy//src/per/sai.h ****  *  sai_config.bit_depth       = SaiHandle::Config::BitDepth::SAI_24BIT;
  27:./libDaisy//src/per/sai.h ****  *  sai_config.a_sync          = SaiHandle::Config::Sync::MASTER;
  28:./libDaisy//src/per/sai.h ****  *  sai_config.b_sync          = SaiHandle::Config::Sync::SLAVE;
  29:./libDaisy//src/per/sai.h ****  *  sai_config.a_dir           = SaiHandle::Config::Direction::RECEIVE;
  30:./libDaisy//src/per/sai.h ****  *  sai_config.b_dir           = SaiHandle::Config::Direction::TRANSMIT;
  31:./libDaisy//src/per/sai.h ****  *  sai_config.pin_config.fs   = {DSY_GPIOE, 4};
  32:./libDaisy//src/per/sai.h ****  *  sai_config.pin_config.mclk = {DSY_GPIOE, 2};
  33:./libDaisy//src/per/sai.h ****  *  sai_config.pin_config.sck  = {DSY_GPIOE, 5};
  34:./libDaisy//src/per/sai.h ****  *  sai_config.pin_config.sa   = {DSY_GPIOE, 6};
  35:./libDaisy//src/per/sai.h ****  *  sai_config.pin_config.sb   = {DSY_GPIOE, 3};
  36:./libDaisy//src/per/sai.h ****  *  // Then Initialize
  37:./libDaisy//src/per/sai.h ****  *  SaiHandle sai;
  38:./libDaisy//src/per/sai.h ****  *  sai.Init(sai_config);
  39:./libDaisy//src/per/sai.h ****  *  // Now you can use it:
  40:./libDaisy//src/per/sai.h ****  *  sai.StartDma(. . .);
  41:./libDaisy//src/per/sai.h ****  */
  42:./libDaisy//src/per/sai.h **** class SaiHandle
  43:./libDaisy//src/per/sai.h **** {
  44:./libDaisy//src/per/sai.h ****   public:
  45:./libDaisy//src/per/sai.h ****     /** Contains settings for initialising an SAI Interface */
  46:./libDaisy//src/per/sai.h ****     struct Config
  47:./libDaisy//src/per/sai.h ****     {
  48:./libDaisy//src/per/sai.h ****         /** Specifies the internal peripheral to use (mapped to different hardware pins) */
  49:./libDaisy//src/per/sai.h ****         enum class Peripheral
  50:./libDaisy//src/per/sai.h ****         {
  51:./libDaisy//src/per/sai.h ****             SAI_1,
  52:./libDaisy//src/per/sai.h ****             SAI_2,
  53:./libDaisy//src/per/sai.h ****         };
  54:./libDaisy//src/per/sai.h **** 
  55:./libDaisy//src/per/sai.h ****         /** Rate at which samples will be streaming to/from the device. */
  56:./libDaisy//src/per/sai.h ****         enum class SampleRate
  57:./libDaisy//src/per/sai.h ****         {
  58:./libDaisy//src/per/sai.h ****             SAI_8KHZ,
  59:./libDaisy//src/per/sai.h ****             SAI_16KHZ,
  60:./libDaisy//src/per/sai.h ****             SAI_32KHZ,
  61:./libDaisy//src/per/sai.h ****             SAI_48KHZ,
  62:./libDaisy//src/per/sai.h ****             SAI_96KHZ,
  63:./libDaisy//src/per/sai.h ****         };
  64:./libDaisy//src/per/sai.h **** 
  65:./libDaisy//src/per/sai.h ****         /** Bit Depth that the hardware expects to be transferred to/from the device. */
  66:./libDaisy//src/per/sai.h ****         enum class BitDepth
  67:./libDaisy//src/per/sai.h ****         {
  68:./libDaisy//src/per/sai.h ****             SAI_16BIT,
  69:./libDaisy//src/per/sai.h ****             SAI_24BIT,
  70:./libDaisy//src/per/sai.h ****             SAI_32BIT,
  71:./libDaisy//src/per/sai.h ****         };
  72:./libDaisy//src/per/sai.h **** 
  73:./libDaisy//src/per/sai.h ****         /** Specifies whether a particular block is the master or the slave 
  74:./libDaisy//src/per/sai.h ****          ** If both are set to slave, no MCLK signal will be used, and it is
ARM GAS  /var/folders/z2/7_lhr9dn53s9tj4s0rwtyswm0000gn/T//ccOZi2Cx.s 			page 136


  75:./libDaisy//src/per/sai.h ****          ** expected that the codec will have its own xtal.
  76:./libDaisy//src/per/sai.h ****          */
  77:./libDaisy//src/per/sai.h ****         enum class Sync
  78:./libDaisy//src/per/sai.h ****         {
  79:./libDaisy//src/per/sai.h ****             MASTER,
  80:./libDaisy//src/per/sai.h ****             SLAVE,
  81:./libDaisy//src/per/sai.h ****         };
  82:./libDaisy//src/per/sai.h **** 
  83:./libDaisy//src/per/sai.h ****         /** Specifies the direction for each peripheral block. */
  84:./libDaisy//src/per/sai.h ****         enum class Direction
  85:./libDaisy//src/per/sai.h ****         {
  86:./libDaisy//src/per/sai.h ****             TRANSMIT,
  87:./libDaisy//src/per/sai.h ****             RECEIVE,
  88:./libDaisy//src/per/sai.h ****         };
  89:./libDaisy//src/per/sai.h **** 
  90:./libDaisy//src/per/sai.h ****         Peripheral periph;
  91:./libDaisy//src/per/sai.h ****         struct
  92:./libDaisy//src/per/sai.h ****         {
  93:./libDaisy//src/per/sai.h ****             dsy_gpio_pin mclk, fs, sck, sa, sb;
  94:./libDaisy//src/per/sai.h ****         } pin_config;
  95:./libDaisy//src/per/sai.h ****         SampleRate sr;
  96:./libDaisy//src/per/sai.h ****         BitDepth   bit_depth;
  97:./libDaisy//src/per/sai.h ****         Sync       a_sync, b_sync;
  98:./libDaisy//src/per/sai.h ****         Direction  a_dir, b_dir;
  99:./libDaisy//src/per/sai.h ****     };
 100:./libDaisy//src/per/sai.h **** 
 101:./libDaisy//src/per/sai.h ****     /** Return values for SAI functions */
 102:./libDaisy//src/per/sai.h ****     enum class Result
 103:./libDaisy//src/per/sai.h ****     {
 104:./libDaisy//src/per/sai.h ****         OK,
 105:./libDaisy//src/per/sai.h ****         ERR,
 106:./libDaisy//src/per/sai.h ****     };
 107:./libDaisy//src/per/sai.h **** 
 108:./libDaisy//src/per/sai.h ****     SaiHandle() : pimpl_(nullptr) {}
 4702              		.loc 22 108 5 is_stmt 1 view .LVU1254
 4703              	.LBB1591:
 4704              	.LBB1592:
 4705              		.loc 22 108 33 is_stmt 0 view .LVU1255
 4706 0054 C463     		str	r4, [r0, #60]
 4707              	.LVL231:
 4708              		.loc 22 108 33 view .LVU1256
 4709              	.LBE1592:
 4710              	.LBE1591:
 4711              	.LBE1590:
 4712              	.LBE1593:
 4713              	.LBE1594:
 4714              	.LBB1595:
 4715              	.LBI1595:
  20:./libDaisy//src/hid/encoder.h ****     ~Encoder() {}
 4716              		.loc 7 20 5 is_stmt 1 view .LVU1257
 4717              	.LBB1596:
 4718              	.LBB1597:
 4719              	.LBI1597:
  41:./libDaisy//src/hid/switch.h ****     ~Switch() {}
 4720              		.loc 5 41 5 view .LVU1258
  41:./libDaisy//src/hid/switch.h ****     ~Switch() {}
 4721              		.loc 5 41 5 is_stmt 0 view .LVU1259
ARM GAS  /var/folders/z2/7_lhr9dn53s9tj4s0rwtyswm0000gn/T//ccOZi2Cx.s 			page 137


 4722              	.LBE1597:
 4723              	.LBE1596:
 4724              	.LBE1595:
 4725              	.LBB1598:
 4726              	.LBI1598:
  21:./libDaisy//src/hid/ctrl.h ****     /** destructor */
 4727              		.loc 6 21 5 is_stmt 1 view .LVU1260
  21:./libDaisy//src/hid/ctrl.h ****     /** destructor */
 4728              		.loc 6 21 5 is_stmt 0 view .LVU1261
 4729              	.LBE1598:
 4730              	.LBB1599:
 4731              	.LBI1599:
  21:./libDaisy//src/hid/ctrl.h ****     /** destructor */
 4732              		.loc 6 21 5 is_stmt 1 view .LVU1262
  21:./libDaisy//src/hid/ctrl.h ****     /** destructor */
 4733              		.loc 6 21 5 is_stmt 0 view .LVU1263
 4734              	.LBE1599:
 4735              	.LBB1600:
 4736              	.LBI1600:
  21:./libDaisy//src/hid/ctrl.h ****     /** destructor */
 4737              		.loc 6 21 5 is_stmt 1 view .LVU1264
  21:./libDaisy//src/hid/ctrl.h ****     /** destructor */
 4738              		.loc 6 21 5 is_stmt 0 view .LVU1265
 4739              	.LBE1600:
 4740              	.LBB1601:
 4741              	.LBI1601:
  21:./libDaisy//src/hid/ctrl.h ****     /** destructor */
 4742              		.loc 6 21 5 is_stmt 1 view .LVU1266
  21:./libDaisy//src/hid/ctrl.h ****     /** destructor */
 4743              		.loc 6 21 5 is_stmt 0 view .LVU1267
 4744              	.LBE1601:
 4745              	.LBB1602:
 4746              	.LBI1602:
  41:./libDaisy//src/hid/switch.h ****     ~Switch() {}
 4747              		.loc 5 41 5 is_stmt 1 view .LVU1268
  41:./libDaisy//src/hid/switch.h ****     ~Switch() {}
 4748              		.loc 5 41 5 is_stmt 0 view .LVU1269
 4749              	.LBE1602:
 4750              	.LBB1603:
 4751              	.LBI1603:
  41:./libDaisy//src/hid/switch.h ****     ~Switch() {}
 4752              		.loc 5 41 5 is_stmt 1 view .LVU1270
  41:./libDaisy//src/hid/switch.h ****     ~Switch() {}
 4753              		.loc 5 41 5 is_stmt 0 view .LVU1271
 4754              	.LBE1603:
 4755              	.LBB1604:
 4756              	.LBI1604:
  17:./libDaisy//src/hid/rgb_led.h ****     ~RgbLed() {}
 4757              		.loc 3 17 5 is_stmt 1 view .LVU1272
 4758              	.LBB1605:
 4759              	.LBB1606:
 4760              	.LBI1606:
  24:./libDaisy//src/hid/led.h ****     ~Led() {}
 4761              		.loc 4 24 5 view .LVU1273
  24:./libDaisy//src/hid/led.h ****     ~Led() {}
 4762              		.loc 4 24 5 is_stmt 0 view .LVU1274
 4763              	.LBE1606:
ARM GAS  /var/folders/z2/7_lhr9dn53s9tj4s0rwtyswm0000gn/T//ccOZi2Cx.s 			page 138


 4764              	.LBB1607:
 4765              	.LBI1607:
  24:./libDaisy//src/hid/led.h ****     ~Led() {}
 4766              		.loc 4 24 5 is_stmt 1 view .LVU1275
  24:./libDaisy//src/hid/led.h ****     ~Led() {}
 4767              		.loc 4 24 5 is_stmt 0 view .LVU1276
 4768              	.LBE1607:
 4769              	.LBB1608:
 4770              	.LBI1608:
  24:./libDaisy//src/hid/led.h ****     ~Led() {}
 4771              		.loc 4 24 5 is_stmt 1 view .LVU1277
  24:./libDaisy//src/hid/led.h ****     ~Led() {}
 4772              		.loc 4 24 5 is_stmt 0 view .LVU1278
 4773              	.LBE1608:
 4774              	.LBE1605:
 4775              	.LBE1604:
 4776              	.LBE1609:
 4777              	.LBE1610:
  14:MPR121.cpp    **** 
 4778              		.loc 14 14 12 view .LVU1279
 4779 0056 FFF7FEFF 		bl	__aeabi_atexit
 4780              	.LVL232:
  18:MPR121.cpp    **** dsp::delay<3800> ds[4];
 4781              		.loc 14 18 21 is_stmt 1 view .LVU1280
 4782              	.LBB1611:
 4783              	.LBI1611:
   8:./virveldsp/src/comb.h ****     public:
 4784              		.loc 17 8 7 view .LVU1281
 4785              	.LBB1612:
 4786 005a 1D49     		ldr	r1, .L123+36
 4787 005c 4FF49670 		mov	r0, #300
 4788              	.LBE1612:
 4789              	.LBE1611:
 4790              	.LBB1617:
 4791              	.LBB1618:
   6:./virveldsp/src/delay.h ****     private:
 4792              		.loc 15 6 7 is_stmt 0 view .LVU1282
 4793 0060 1C4B     		ldr	r3, .L123+40
 4794              	.LBE1618:
 4795              	.LBE1617:
  22:MPR121.cpp    **** Oscillator lfo;
 4796              		.loc 14 22 12 view .LVU1283
 4797 0062 144A     		ldr	r2, .L123+8
 4798              	.LBB1623:
 4799              	.LBB1613:
   8:./virveldsp/src/comb.h ****     public:
 4800              		.loc 17 8 7 view .LVU1284
 4801 0064 0880     		strh	r0, [r1]	@ movhi
 4802              	.LVL233:
   8:./virveldsp/src/comb.h ****     public:
 4803              		.loc 17 8 7 view .LVU1285
 4804              	.LBE1613:
 4805              	.LBE1623:
  18:MPR121.cpp    **** dsp::delay<3800> ds[4];
 4806              		.loc 14 18 21 is_stmt 1 view .LVU1286
  18:MPR121.cpp    **** dsp::delay<3800> ds[4];
 4807              		.loc 14 18 21 view .LVU1287
ARM GAS  /var/folders/z2/7_lhr9dn53s9tj4s0rwtyswm0000gn/T//ccOZi2Cx.s 			page 139


 4808              	.LBB1624:
   8:./virveldsp/src/comb.h ****     public:
 4809              		.loc 17 8 7 view .LVU1288
 4810              	.LBB1614:
 4811 0066 A1F8C804 		strh	r0, [r1, #1224]	@ movhi
 4812              	.LVL234:
   8:./virveldsp/src/comb.h ****     public:
 4813              		.loc 17 8 7 is_stmt 0 view .LVU1289
 4814              	.LBE1614:
 4815              	.LBE1624:
  18:MPR121.cpp    **** dsp::delay<3800> ds[4];
 4816              		.loc 14 18 21 is_stmt 1 view .LVU1290
  18:MPR121.cpp    **** dsp::delay<3800> ds[4];
 4817              		.loc 14 18 21 view .LVU1291
 4818              	.LBB1625:
   8:./virveldsp/src/comb.h ****     public:
 4819              		.loc 17 8 7 view .LVU1292
 4820              	.LBB1615:
 4821 006a A1F89009 		strh	r0, [r1, #2448]	@ movhi
 4822              	.LVL235:
   8:./virveldsp/src/comb.h ****     public:
 4823              		.loc 17 8 7 is_stmt 0 view .LVU1293
 4824              	.LBE1615:
 4825              	.LBE1625:
  18:MPR121.cpp    **** dsp::delay<3800> ds[4];
 4826              		.loc 14 18 21 is_stmt 1 view .LVU1294
  18:MPR121.cpp    **** dsp::delay<3800> ds[4];
 4827              		.loc 14 18 21 view .LVU1295
 4828              	.LBB1626:
   8:./virveldsp/src/comb.h ****     public:
 4829              		.loc 17 8 7 view .LVU1296
 4830              	.LBB1616:
 4831 006e A1F8580E 		strh	r0, [r1, #3672]	@ movhi
 4832              	.LVL236:
   8:./virveldsp/src/comb.h ****     public:
 4833              		.loc 17 8 7 is_stmt 0 view .LVU1297
 4834              	.LBE1616:
 4835              	.LBE1626:
  18:MPR121.cpp    **** dsp::delay<3800> ds[4];
 4836              		.loc 14 18 21 is_stmt 1 view .LVU1298
  18:MPR121.cpp    **** dsp::delay<3800> ds[4];
 4837              		.loc 14 18 21 view .LVU1299
  19:MPR121.cpp    **** dsp::lowpass lps[4];
 4838              		.loc 14 19 22 view .LVU1300
 4839              	.LBB1627:
 4840              	.LBI1617:
   6:./virveldsp/src/delay.h ****     private:
 4841              		.loc 15 6 7 view .LVU1301
 4842              	.LBB1619:
 4843 0072 40F6D861 		movw	r1, #3800
 4844 0076 03F54050 		add	r0, r3, #12288
 4845 007a A0F8601B 		strh	r1, [r0, #2912]	@ movhi
 4846              	.LVL237:
   6:./virveldsp/src/delay.h ****     private:
 4847              		.loc 15 6 7 is_stmt 0 view .LVU1302
 4848              	.LBE1619:
 4849              	.LBE1627:
ARM GAS  /var/folders/z2/7_lhr9dn53s9tj4s0rwtyswm0000gn/T//ccOZi2Cx.s 			page 140


  19:MPR121.cpp    **** dsp::lowpass lps[4];
 4850              		.loc 14 19 22 is_stmt 1 view .LVU1303
  19:MPR121.cpp    **** dsp::lowpass lps[4];
 4851              		.loc 14 19 22 view .LVU1304
 4852              	.LBB1628:
   6:./virveldsp/src/delay.h ****     private:
 4853              		.loc 15 6 7 view .LVU1305
 4854              	.LBB1620:
 4855 007e 03F5E040 		add	r0, r3, #28672
 4856 0082 A0F8D416 		strh	r1, [r0, #1748]	@ movhi
 4857              	.LVL238:
   6:./virveldsp/src/delay.h ****     private:
 4858              		.loc 15 6 7 is_stmt 0 view .LVU1306
 4859              	.LBE1620:
 4860              	.LBE1628:
  19:MPR121.cpp    **** dsp::lowpass lps[4];
 4861              		.loc 14 19 22 is_stmt 1 view .LVU1307
  19:MPR121.cpp    **** dsp::lowpass lps[4];
 4862              		.loc 14 19 22 view .LVU1308
 4863              	.LBB1629:
   6:./virveldsp/src/delay.h ****     private:
 4864              		.loc 15 6 7 view .LVU1309
 4865              	.LBB1621:
 4866 0086 03F53040 		add	r0, r3, #45056
 4867 008a 03F56043 		add	r3, r3, #57344
 4868 008e A0F84812 		strh	r1, [r0, #584]	@ movhi
 4869              	.LVL239:
   6:./virveldsp/src/delay.h ****     private:
 4870              		.loc 15 6 7 is_stmt 0 view .LVU1310
 4871              	.LBE1621:
 4872              	.LBE1629:
  19:MPR121.cpp    **** dsp::lowpass lps[4];
 4873              		.loc 14 19 22 is_stmt 1 view .LVU1311
  19:MPR121.cpp    **** dsp::lowpass lps[4];
 4874              		.loc 14 19 22 view .LVU1312
 4875              	.LBB1630:
   6:./virveldsp/src/delay.h ****     private:
 4876              		.loc 15 6 7 view .LVU1313
 4877              	.LBB1622:
 4878 0092 A3F8BC1D 		strh	r1, [r3, #3516]	@ movhi
 4879              	.LVL240:
   6:./virveldsp/src/delay.h ****     private:
 4880              		.loc 15 6 7 is_stmt 0 view .LVU1314
 4881              	.LBE1622:
 4882              	.LBE1630:
  19:MPR121.cpp    **** dsp::lowpass lps[4];
 4883              		.loc 14 19 22 is_stmt 1 view .LVU1315
  19:MPR121.cpp    **** dsp::lowpass lps[4];
 4884              		.loc 14 19 22 view .LVU1316
 4885              	.LBB1631:
 4886              	.LBI1631:
  23:./DaisySP//Source/Synthesis/oscillator.h ****     ~Oscillator() {}
 4887              		.loc 13 23 5 view .LVU1317
  23:./DaisySP//Source/Synthesis/oscillator.h ****     ~Oscillator() {}
 4888              		.loc 13 23 5 is_stmt 0 view .LVU1318
 4889              	.LBE1631:
  22:MPR121.cpp    **** Oscillator lfo;
ARM GAS  /var/folders/z2/7_lhr9dn53s9tj4s0rwtyswm0000gn/T//ccOZi2Cx.s 			page 141


 4890              		.loc 14 22 12 view .LVU1319
 4891 0096 2946     		mov	r1, r5
 4892 0098 0F48     		ldr	r0, .L123+44
 4893 009a FFF7FEFF 		bl	__aeabi_atexit
 4894              	.LVL241:
 4895              	.LBB1632:
 4896              	.LBI1632:
  23:./DaisySP//Source/Synthesis/oscillator.h ****     ~Oscillator() {}
 4897              		.loc 13 23 5 is_stmt 1 view .LVU1320
  23:./DaisySP//Source/Synthesis/oscillator.h ****     ~Oscillator() {}
 4898              		.loc 13 23 5 is_stmt 0 view .LVU1321
 4899              	.LBE1632:
  23:MPR121.cpp    **** 
 4900              		.loc 14 23 12 view .LVU1322
 4901 009e 2946     		mov	r1, r5
 4902 00a0 044A     		ldr	r2, .L123+8
 4903 00a2 0E48     		ldr	r0, .L123+48
 4904              	.LBE1633:
 4905              	.LBE1635:
 4906              		.loc 14 204 1 view .LVU1323
 4907 00a4 BDE8F041 		pop	{r4, r5, r6, r7, r8, lr}
 4908              		.cfi_restore 14
 4909              		.cfi_restore 8
 4910              		.cfi_restore 7
 4911              		.cfi_restore 6
 4912              		.cfi_restore 5
 4913              		.cfi_restore 4
 4914              		.cfi_def_cfa_offset 0
 4915              	.LBB1636:
 4916              	.LBB1634:
  23:MPR121.cpp    **** 
 4917              		.loc 14 23 12 view .LVU1324
 4918 00a8 FFF7FEBF 		b	__aeabi_atexit
 4919              	.LVL242:
 4920              	.L124:
 4921              		.align	2
 4922              	.L123:
 4923 00ac 00000000 		.word	.LANCHOR9
 4924 00b0 01080109 		.word	151062529
 4925 00b4 00000000 		.word	__dso_handle
 4926 00b8 00000000 		.word	_ZN5daisy18Mpr121I2CTransportD1Ev
 4927 00bc 00000000 		.word	_ZN7daisysp10OscillatorD1Ev
 4928 00c0 00000000 		.word	.LANCHOR10
 4929 00c4 00000000 		.word	_ZN5daisy6Mpr121INS_18Mpr121I2CTransportEED1Ev
 4930 00c8 00000000 		.word	.LANCHOR8
 4931 00cc 00000000 		.word	_ZN5daisy10TusenskonaD1Ev
 4932 00d0 00000000 		.word	aps
 4933 00d4 00000000 		.word	ds
 4934 00d8 00000000 		.word	.LANCHOR0
 4935 00dc 00000000 		.word	.LANCHOR7
 4936              	.LBE1634:
 4937              	.LBE1636:
 4938              		.cfi_endproc
 4939              	.LFE5348:
 4941              		.section	.init_array,"aw",%init_array
 4942              		.align	2
 4943 0000 00000000 		.word	_GLOBAL__sub_I_i2c(target1)
ARM GAS  /var/folders/z2/7_lhr9dn53s9tj4s0rwtyswm0000gn/T//ccOZi2Cx.s 			page 142


 4944              		.global	d
 4945              		.global	c
 4946              		.global	b
 4947              		.global	a
 4948              		.global	decay
 4949              		.global	lfo
 4950              		.global	sine
 4951              		.global	lps
 4952              		.global	ds
 4953              		.global	aps
 4954              		.global	touched
 4955              		.global	hw
 4956              		.global	touch
 4957              		.global	i2c
 4958              		.section	.bss.a,"aw",%nobits
 4959              		.align	2
 4960              		.set	.LANCHOR2,. + 0
 4963              	a:
 4964 0000 00000000 		.space	4
 4965              		.section	.bss.aps,"aw",%nobits
 4966              		.align	2
 4969              	aps:
 4970 0000 00000000 		.space	4896
 4970      00000000 
 4970      00000000 
 4970      00000000 
 4970      00000000 
 4971              		.section	.bss.b,"aw",%nobits
 4972              		.align	2
 4973              		.set	.LANCHOR6,. + 0
 4976              	b:
 4977 0000 00000000 		.space	4
 4978              		.section	.bss.c,"aw",%nobits
 4979              		.align	2
 4980              		.set	.LANCHOR3,. + 0
 4983              	c:
 4984 0000 00000000 		.space	4
 4985              		.section	.bss.d,"aw",%nobits
 4986              		.align	2
 4987              		.set	.LANCHOR4,. + 0
 4990              	d:
 4991 0000 00000000 		.space	4
 4992              		.section	.bss.ds,"aw",%nobits
 4993              		.align	2
 4996              	ds:
 4997 0000 00000000 		.space	60880
 4997      00000000 
 4997      00000000 
 4997      00000000 
 4997      00000000 
 4998              		.section	.bss.hw,"aw",%nobits
 4999              		.align	2
 5000              		.set	.LANCHOR8,. + 0
 5003              	hw:
 5004 0000 00000000 		.space	372
 5004      00000000 
 5004      00000000 
ARM GAS  /var/folders/z2/7_lhr9dn53s9tj4s0rwtyswm0000gn/T//ccOZi2Cx.s 			page 143


 5004      00000000 
 5004      00000000 
 5005              		.section	.bss.i2c,"aw",%nobits
 5006              		.align	2
 5007              		.set	.LANCHOR9,. + 0
 5010              	i2c:
 5011 0000 00000000 		.space	24
 5011      00000000 
 5011      00000000 
 5011      00000000 
 5011      00000000 
 5012              		.section	.bss.lfo,"aw",%nobits
 5013              		.align	2
 5014              		.set	.LANCHOR7,. + 0
 5017              	lfo:
 5018 0000 00000000 		.space	44
 5018      00000000 
 5018      00000000 
 5018      00000000 
 5018      00000000 
 5019              		.section	.bss.lps,"aw",%nobits
 5020              		.align	2
 5021              		.set	.LANCHOR1,. + 0
 5024              	lps:
 5025 0000 00000000 		.space	48
 5025      00000000 
 5025      00000000 
 5025      00000000 
 5025      00000000 
 5026              		.section	.bss.sine,"aw",%nobits
 5027              		.align	2
 5028              		.set	.LANCHOR0,. + 0
 5031              	sine:
 5032 0000 00000000 		.space	44
 5032      00000000 
 5032      00000000 
 5032      00000000 
 5032      00000000 
 5033              		.section	.bss.touch,"aw",%nobits
 5034              		.align	2
 5035              		.set	.LANCHOR10,. + 0
 5038              	touch:
 5039 0000 00000000 		.space	52
 5039      00000000 
 5039      00000000 
 5039      00000000 
 5039      00000000 
 5040              		.section	.bss.touched,"aw",%nobits
 5041              		.align	1
 5042              		.set	.LANCHOR11,. + 0
 5045              	touched:
 5046 0000 0000     		.space	2
 5047              		.section	.data.decay,"aw"
 5048              		.align	2
 5049              		.set	.LANCHOR5,. + 0
 5052              	decay:
 5053 0000 0000003F 		.word	1056964608
ARM GAS  /var/folders/z2/7_lhr9dn53s9tj4s0rwtyswm0000gn/T//ccOZi2Cx.s 			page 144


 5054              		.text
 5055              	.Letext0:
 5056              		.file 23 "/Applications/ARM/arm-none-eabi/include/machine/_default_types.h"
 5057              		.file 24 "/Applications/ARM/arm-none-eabi/include/sys/_stdint.h"
 5058              		.file 25 "/Applications/ARM/arm-none-eabi/include/stdint.h"
 5059              		.file 26 "/Applications/ARM/lib/gcc/arm-none-eabi/10.3.1/include/stddef.h"
 5060              		.file 27 "/Applications/ARM/arm-none-eabi/include/c++/10.3.1/cmath"
 5061              		.file 28 "/Applications/ARM/arm-none-eabi/include/c++/10.3.1/bits/std_abs.h"
 5062              		.file 29 "/Applications/ARM/arm-none-eabi/include/c++/10.3.1/cstdlib"
 5063              		.file 30 "/Applications/ARM/arm-none-eabi/include/c++/10.3.1/cstdint"
 5064              		.file 31 "/Applications/ARM/arm-none-eabi/include/c++/10.3.1/type_traits"
 5065              		.file 32 "/Applications/ARM/arm-none-eabi/include/c++/10.3.1/debug/debug.h"
 5066              		.file 33 "/Applications/ARM/arm-none-eabi/include/c++/10.3.1/arm-none-eabi/thumb/v7e-m+dp/hard/bit
 5067              		.file 34 "/Applications/ARM/arm-none-eabi/include/c++/10.3.1/bits/algorithmfwd.h"
 5068              		.file 35 "/Applications/ARM/arm-none-eabi/include/c++/10.3.1/bits/stl_pair.h"
 5069              		.file 36 "/Applications/ARM/arm-none-eabi/include/c++/10.3.1/bits/exception_ptr.h"
 5070              		.file 37 "/Applications/ARM/arm-none-eabi/include/c++/10.3.1/cstdarg"
 5071              		.file 38 "/Applications/ARM/arm-none-eabi/include/c++/10.3.1/cstdio"
 5072              		.file 39 "/Applications/ARM/arm-none-eabi/include/c++/10.3.1/cstring"
 5073              		.file 40 "/Applications/ARM/arm-none-eabi/include/c++/10.3.1/cwchar"
 5074              		.file 41 "/Applications/ARM/arm-none-eabi/include/c++/10.3.1/clocale"
 5075              		.file 42 "/Applications/ARM/arm-none-eabi/include/c++/10.3.1/bits/basic_string.h"
 5076              		.file 43 "/Applications/ARM/arm-none-eabi/include/c++/10.3.1/bits/stl_iterator.h"
 5077              		.file 44 "/Applications/ARM/arm-none-eabi/include/c++/10.3.1/bits/predefined_ops.h"
 5078              		.file 45 "/Applications/ARM/arm-none-eabi/include/sys/_types.h"
 5079              		.file 46 "/Applications/ARM/arm-none-eabi/include/sys/reent.h"
 5080              		.file 47 "/Applications/ARM/arm-none-eabi/include/sys/lock.h"
 5081              		.file 48 "/Applications/ARM/arm-none-eabi/include/math.h"
 5082              		.file 49 "/Applications/ARM/arm-none-eabi/include/stdlib.h"
 5083              		.file 50 "/Applications/ARM/arm-none-eabi/include/c++/10.3.1/math.h"
 5084              		.file 51 "/Applications/ARM/arm-none-eabi/include/c++/10.3.1/stdlib.h"
 5085              		.file 52 "./libDaisy//src/per/tim.h"
 5086              		.file 53 "./libDaisy//src/util/wav_format.h"
 5087              		.file 54 "./libDaisy//src/util/color.h"
 5088              		.file 55 "./libDaisy//src/dev/max11300.h"
 5089              		.file 56 "./libDaisy//src/per/gpio.h"
 5090              		.file 57 "./libDaisy//src/dev/sdram.h"
 5091              		.file 58 "/Applications/ARM/lib/gcc/arm-none-eabi/10.3.1/include/stdarg.h"
 5092              		.file 59 "/Applications/ARM/arm-none-eabi/include/stdio.h"
 5093              		.file 60 "/Applications/ARM/arm-none-eabi/include/string.h"
 5094              		.file 61 "./DaisySP//Source/Control/adenv.h"
 5095              		.file 62 "./DaisySP//Source/Utility/dsp.h"
 5096              		.file 63 "/Applications/ARM/arm-none-eabi/include/wchar.h"
 5097              		.file 64 "/Applications/ARM/arm-none-eabi/include/locale.h"
 5098              		.file 65 "<built-in>"
 5099              		.file 66 "./libDaisy//src/dev/sr_595.h"
ARM GAS  /var/folders/z2/7_lhr9dn53s9tj4s0rwtyswm0000gn/T//ccOZi2Cx.s 			page 145


DEFINED SYMBOLS
                            *ABS*:0000000000000000 MPR121.cpp
/var/folders/z2/7_lhr9dn53s9tj4s0rwtyswm0000gn/T//ccOZi2Cx.s:19     .text._ZN5daisy18Mpr121I2CTransportD2Ev:0000000000000000 $t
/var/folders/z2/7_lhr9dn53s9tj4s0rwtyswm0000gn/T//ccOZi2Cx.s:26     .text._ZN5daisy18Mpr121I2CTransportD2Ev:0000000000000000 _ZN5daisy18Mpr121I2CTransportD2Ev
/var/folders/z2/7_lhr9dn53s9tj4s0rwtyswm0000gn/T//ccOZi2Cx.s:26     .text._ZN5daisy18Mpr121I2CTransportD2Ev:0000000000000000 _ZN5daisy18Mpr121I2CTransportD1Ev
/var/folders/z2/7_lhr9dn53s9tj4s0rwtyswm0000gn/T//ccOZi2Cx.s:43     .text._ZN5daisy10TusenskonaD2Ev:0000000000000000 $t
/var/folders/z2/7_lhr9dn53s9tj4s0rwtyswm0000gn/T//ccOZi2Cx.s:50     .text._ZN5daisy10TusenskonaD2Ev:0000000000000000 _ZN5daisy10TusenskonaD2Ev
/var/folders/z2/7_lhr9dn53s9tj4s0rwtyswm0000gn/T//ccOZi2Cx.s:50     .text._ZN5daisy10TusenskonaD2Ev:0000000000000000 _ZN5daisy10TusenskonaD1Ev
/var/folders/z2/7_lhr9dn53s9tj4s0rwtyswm0000gn/T//ccOZi2Cx.s:159    .text._ZN7daisysp10OscillatorD2Ev:0000000000000000 $t
/var/folders/z2/7_lhr9dn53s9tj4s0rwtyswm0000gn/T//ccOZi2Cx.s:166    .text._ZN7daisysp10OscillatorD2Ev:0000000000000000 _ZN7daisysp10OscillatorD2Ev
/var/folders/z2/7_lhr9dn53s9tj4s0rwtyswm0000gn/T//ccOZi2Cx.s:166    .text._ZN7daisysp10OscillatorD2Ev:0000000000000000 _ZN7daisysp10OscillatorD1Ev
/var/folders/z2/7_lhr9dn53s9tj4s0rwtyswm0000gn/T//ccOZi2Cx.s:183    .text._ZN5daisy6Mpr121INS_18Mpr121I2CTransportEED2Ev:0000000000000000 $t
/var/folders/z2/7_lhr9dn53s9tj4s0rwtyswm0000gn/T//ccOZi2Cx.s:190    .text._ZN5daisy6Mpr121INS_18Mpr121I2CTransportEED2Ev:0000000000000000 _ZN5daisy6Mpr121INS_18Mpr121I2CTransportEED2Ev
/var/folders/z2/7_lhr9dn53s9tj4s0rwtyswm0000gn/T//ccOZi2Cx.s:190    .text._ZN5daisy6Mpr121INS_18Mpr121I2CTransportEED2Ev:0000000000000000 _ZN5daisy6Mpr121INS_18Mpr121I2CTransportEED1Ev
/var/folders/z2/7_lhr9dn53s9tj4s0rwtyswm0000gn/T//ccOZi2Cx.s:211    .text._Z16NewAudioCallbackPKPKfPPfj:0000000000000000 $t
/var/folders/z2/7_lhr9dn53s9tj4s0rwtyswm0000gn/T//ccOZi2Cx.s:218    .text._Z16NewAudioCallbackPKPKfPPfj:0000000000000000 _Z16NewAudioCallbackPKPKfPPfj
/var/folders/z2/7_lhr9dn53s9tj4s0rwtyswm0000gn/T//ccOZi2Cx.s:277    .text._Z16NewAudioCallbackPKPKfPPfj:000000000000003c $d
/var/folders/z2/7_lhr9dn53s9tj4s0rwtyswm0000gn/T//ccOZi2Cx.s:4996   .bss.ds:0000000000000000 ds
/var/folders/z2/7_lhr9dn53s9tj4s0rwtyswm0000gn/T//ccOZi2Cx.s:4969   .bss.aps:0000000000000000 aps
/var/folders/z2/7_lhr9dn53s9tj4s0rwtyswm0000gn/T//ccOZi2Cx.s:286    .text._Z16NewAudioCallbackPKPKfPPfj:0000000000000048 $t
/var/folders/z2/7_lhr9dn53s9tj4s0rwtyswm0000gn/T//ccOZi2Cx.s:1605   .text._Z16NewAudioCallbackPKPKfPPfj:00000000000005d0 $d
/var/folders/z2/7_lhr9dn53s9tj4s0rwtyswm0000gn/T//ccOZi2Cx.s:1623   .text._Z13AudioCallbackPKPKfPPfj:0000000000000000 $t
/var/folders/z2/7_lhr9dn53s9tj4s0rwtyswm0000gn/T//ccOZi2Cx.s:1630   .text._Z13AudioCallbackPKPKfPPfj:0000000000000000 _Z13AudioCallbackPKPKfPPfj
/var/folders/z2/7_lhr9dn53s9tj4s0rwtyswm0000gn/T//ccOZi2Cx.s:1689   .text._Z13AudioCallbackPKPKfPPfj:0000000000000018 $d
/var/folders/z2/7_lhr9dn53s9tj4s0rwtyswm0000gn/T//ccOZi2Cx.s:1694   .text._Z14UpdateControlsv:0000000000000000 $t
/var/folders/z2/7_lhr9dn53s9tj4s0rwtyswm0000gn/T//ccOZi2Cx.s:1701   .text._Z14UpdateControlsv:0000000000000000 _Z14UpdateControlsv
/var/folders/z2/7_lhr9dn53s9tj4s0rwtyswm0000gn/T//ccOZi2Cx.s:2121   .text._Z14UpdateControlsv:0000000000000120 $d
/var/folders/z2/7_lhr9dn53s9tj4s0rwtyswm0000gn/T//ccOZi2Cx.s:2140   .text._ZN5daisy6Mpr121INS_18Mpr121I2CTransportEE13WriteRegisterEhh:0000000000000000 $t
/var/folders/z2/7_lhr9dn53s9tj4s0rwtyswm0000gn/T//ccOZi2Cx.s:2147   .text._ZN5daisy6Mpr121INS_18Mpr121I2CTransportEE13WriteRegisterEhh:0000000000000000 _ZN5daisy6Mpr121INS_18Mpr121I2CTransportEE13WriteRegisterEhh
/var/folders/z2/7_lhr9dn53s9tj4s0rwtyswm0000gn/T//ccOZi2Cx.s:2517   .text.startup.main:0000000000000000 $t
/var/folders/z2/7_lhr9dn53s9tj4s0rwtyswm0000gn/T//ccOZi2Cx.s:2524   .text.startup.main:0000000000000000 main
/var/folders/z2/7_lhr9dn53s9tj4s0rwtyswm0000gn/T//ccOZi2Cx.s:3614   .text.startup.main:0000000000000310 $d
/var/folders/z2/7_lhr9dn53s9tj4s0rwtyswm0000gn/T//ccOZi2Cx.s:3639   .text.startup.main:0000000000000330 $t
/var/folders/z2/7_lhr9dn53s9tj4s0rwtyswm0000gn/T//ccOZi2Cx.s:4305   .text.startup.main:00000000000004d8 $d
/var/folders/z2/7_lhr9dn53s9tj4s0rwtyswm0000gn/T//ccOZi2Cx.s:4333   .text.startup._GLOBAL__sub_I_i2c:0000000000000000 $t
/var/folders/z2/7_lhr9dn53s9tj4s0rwtyswm0000gn/T//ccOZi2Cx.s:4339   .text.startup._GLOBAL__sub_I_i2c:0000000000000000 _GLOBAL__sub_I_i2c
/var/folders/z2/7_lhr9dn53s9tj4s0rwtyswm0000gn/T//ccOZi2Cx.s:4923   .text.startup._GLOBAL__sub_I_i2c:00000000000000ac $d
/var/folders/z2/7_lhr9dn53s9tj4s0rwtyswm0000gn/T//ccOZi2Cx.s:4942   .init_array:0000000000000000 $d
/var/folders/z2/7_lhr9dn53s9tj4s0rwtyswm0000gn/T//ccOZi2Cx.s:4990   .bss.d:0000000000000000 d
/var/folders/z2/7_lhr9dn53s9tj4s0rwtyswm0000gn/T//ccOZi2Cx.s:4983   .bss.c:0000000000000000 c
/var/folders/z2/7_lhr9dn53s9tj4s0rwtyswm0000gn/T//ccOZi2Cx.s:4976   .bss.b:0000000000000000 b
/var/folders/z2/7_lhr9dn53s9tj4s0rwtyswm0000gn/T//ccOZi2Cx.s:4963   .bss.a:0000000000000000 a
/var/folders/z2/7_lhr9dn53s9tj4s0rwtyswm0000gn/T//ccOZi2Cx.s:5052   .data.decay:0000000000000000 decay
/var/folders/z2/7_lhr9dn53s9tj4s0rwtyswm0000gn/T//ccOZi2Cx.s:5017   .bss.lfo:0000000000000000 lfo
/var/folders/z2/7_lhr9dn53s9tj4s0rwtyswm0000gn/T//ccOZi2Cx.s:5031   .bss.sine:0000000000000000 sine
/var/folders/z2/7_lhr9dn53s9tj4s0rwtyswm0000gn/T//ccOZi2Cx.s:5024   .bss.lps:0000000000000000 lps
/var/folders/z2/7_lhr9dn53s9tj4s0rwtyswm0000gn/T//ccOZi2Cx.s:5045   .bss.touched:0000000000000000 touched
/var/folders/z2/7_lhr9dn53s9tj4s0rwtyswm0000gn/T//ccOZi2Cx.s:5003   .bss.hw:0000000000000000 hw
/var/folders/z2/7_lhr9dn53s9tj4s0rwtyswm0000gn/T//ccOZi2Cx.s:5038   .bss.touch:0000000000000000 touch
/var/folders/z2/7_lhr9dn53s9tj4s0rwtyswm0000gn/T//ccOZi2Cx.s:5010   .bss.i2c:0000000000000000 i2c
/var/folders/z2/7_lhr9dn53s9tj4s0rwtyswm0000gn/T//ccOZi2Cx.s:4959   .bss.a:0000000000000000 $d
/var/folders/z2/7_lhr9dn53s9tj4s0rwtyswm0000gn/T//ccOZi2Cx.s:4966   .bss.aps:0000000000000000 $d
/var/folders/z2/7_lhr9dn53s9tj4s0rwtyswm0000gn/T//ccOZi2Cx.s:4972   .bss.b:0000000000000000 $d
/var/folders/z2/7_lhr9dn53s9tj4s0rwtyswm0000gn/T//ccOZi2Cx.s:4979   .bss.c:0000000000000000 $d
/var/folders/z2/7_lhr9dn53s9tj4s0rwtyswm0000gn/T//ccOZi2Cx.s:4986   .bss.d:0000000000000000 $d
/var/folders/z2/7_lhr9dn53s9tj4s0rwtyswm0000gn/T//ccOZi2Cx.s:4993   .bss.ds:0000000000000000 $d
/var/folders/z2/7_lhr9dn53s9tj4s0rwtyswm0000gn/T//ccOZi2Cx.s:4999   .bss.hw:0000000000000000 $d
ARM GAS  /var/folders/z2/7_lhr9dn53s9tj4s0rwtyswm0000gn/T//ccOZi2Cx.s 			page 146


/var/folders/z2/7_lhr9dn53s9tj4s0rwtyswm0000gn/T//ccOZi2Cx.s:5006   .bss.i2c:0000000000000000 $d
/var/folders/z2/7_lhr9dn53s9tj4s0rwtyswm0000gn/T//ccOZi2Cx.s:5013   .bss.lfo:0000000000000000 $d
/var/folders/z2/7_lhr9dn53s9tj4s0rwtyswm0000gn/T//ccOZi2Cx.s:5020   .bss.lps:0000000000000000 $d
/var/folders/z2/7_lhr9dn53s9tj4s0rwtyswm0000gn/T//ccOZi2Cx.s:5027   .bss.sine:0000000000000000 $d
/var/folders/z2/7_lhr9dn53s9tj4s0rwtyswm0000gn/T//ccOZi2Cx.s:5034   .bss.touch:0000000000000000 $d
/var/folders/z2/7_lhr9dn53s9tj4s0rwtyswm0000gn/T//ccOZi2Cx.s:5041   .bss.touched:0000000000000000 $d
/var/folders/z2/7_lhr9dn53s9tj4s0rwtyswm0000gn/T//ccOZi2Cx.s:5048   .data.decay:0000000000000000 $d
                           .group:0000000000000000 _ZN5daisy18Mpr121I2CTransportD5Ev
                           .group:0000000000000000 _ZN5daisy10TusenskonaD5Ev
                           .group:0000000000000000 _ZN7daisysp10OscillatorD5Ev
                           .group:0000000000000000 _ZN5daisy6Mpr121INS_18Mpr121I2CTransportEED5Ev

UNDEFINED SYMBOLS
tanhf
_ZN7daisysp10Oscillator7ProcessEv
_ZN5daisy10Tusenskona21ProcessAnalogControlsEv
_ZN5daisy10Tusenskona22ProcessDigitalControlsEv
_ZN5daisy10Tusenskona12GetKnobValueENS0_4KnobE
_ZN7daisysp10Oscillator12CalcPhaseIncEf
_ZN5daisy9I2CHandle16TransmitBlockingEtPhtm
_ZN5daisy9I2CHandle15ReceiveBlockingEtPhtm
_ZN5daisy10Tusenskona4InitEb
_ZN5daisy9I2CHandle4InitERKNS0_6ConfigE
_ZN5daisy6System5DelayEm
_ZN5daisy10Tusenskona17SetAudioBlockSizeEj
_ZN5daisy10Tusenskona18SetAudioSampleRateENS_9SaiHandle6Config10SampleRateE
_ZN5daisy10Tusenskona8StartAdcEv
_ZN5daisy10Tusenskona10StartAudioEPFvPKPKfPPfjE
__aeabi_atexit
__dso_handle
