ARM GAS  /var/folders/z2/7_lhr9dn53s9tj4s0rwtyswm0000gn/T//ccMKtZbG.s 			page 1


   1              		.cpu cortex-m7
   2              		.arch armv7e-m
   3              		.fpu fpv5-d16
   4              		.eabi_attribute 28, 1
   5              		.eabi_attribute 20, 1
   6              		.eabi_attribute 21, 1
   7              		.eabi_attribute 23, 3
   8              		.eabi_attribute 24, 1
   9              		.eabi_attribute 25, 1
  10              		.eabi_attribute 26, 1
  11              		.eabi_attribute 30, 2
  12              		.eabi_attribute 34, 1
  13              		.eabi_attribute 18, 4
  14              		.file	"tusenskona.cpp"
  15              		.text
  16              	.Ltext0:
  17              		.cfi_sections	.debug_frame
  18              		.section	.text._ZN5daisy10Tusenskona7DelayMsEj,"ax",%progbits
  19              		.align	1
  20              		.p2align 2,,3
  21              		.global	_ZN5daisy10Tusenskona7DelayMsEj
  22              		.syntax unified
  23              		.thumb
  24              		.thumb_func
  26              	_ZN5daisy10Tusenskona7DelayMsEj:
  27              	.LVL0:
  28              	.LFB2569:
  29              		.file 1 "tusenskona/src/tusenskona.cpp"
   1:tusenskona/src/tusenskona.cpp **** #include "tusenskona.h"
   2:tusenskona/src/tusenskona.cpp **** 
   3:tusenskona/src/tusenskona.cpp **** #ifndef SAMPLE_RATE
   4:tusenskona/src/tusenskona.cpp **** //#define SAMPLE_RATE DSY_AUDIO_SAMPLE_RATE
   5:tusenskona/src/tusenskona.cpp **** #define SAMPLE_RATE 48014.f
   6:tusenskona/src/tusenskona.cpp **** #endif
   7:tusenskona/src/tusenskona.cpp **** 
   8:tusenskona/src/tusenskona.cpp **** 
   9:tusenskona/src/tusenskona.cpp **** #define SW_1_PIN 27
  10:tusenskona/src/tusenskona.cpp **** #define SW_2_PIN 24
  11:tusenskona/src/tusenskona.cpp **** 
  12:tusenskona/src/tusenskona.cpp **** #define ENC_A_PIN 26
  13:tusenskona/src/tusenskona.cpp **** #define ENC_B_PIN 25
  14:tusenskona/src/tusenskona.cpp **** #define ENC_CLICK_PIN 14
  15:tusenskona/src/tusenskona.cpp **** 
  16:tusenskona/src/tusenskona.cpp **** #define LED_R_PIN 28
  17:tusenskona/src/tusenskona.cpp **** #define LED_G_PIN 23
  18:tusenskona/src/tusenskona.cpp **** #define LED_B_PIN 22
  19:tusenskona/src/tusenskona.cpp **** 
  20:tusenskona/src/tusenskona.cpp **** #define KNOB_1_PIN 16
  21:tusenskona/src/tusenskona.cpp **** #define KNOB_2_PIN 17
  22:tusenskona/src/tusenskona.cpp **** #define KNOB_3_PIN 18
  23:tusenskona/src/tusenskona.cpp **** #define KNOB_4_PIN 19
  24:tusenskona/src/tusenskona.cpp **** 
  25:tusenskona/src/tusenskona.cpp **** using namespace daisy;
  26:tusenskona/src/tusenskona.cpp **** 
  27:tusenskona/src/tusenskona.cpp **** void Tusenskona::Init(bool boost)
  28:tusenskona/src/tusenskona.cpp **** {
  29:tusenskona/src/tusenskona.cpp ****     seed.Configure();
ARM GAS  /var/folders/z2/7_lhr9dn53s9tj4s0rwtyswm0000gn/T//ccMKtZbG.s 			page 2


  30:tusenskona/src/tusenskona.cpp ****     seed.Init(boost);
  31:tusenskona/src/tusenskona.cpp ****     InitButtons();
  32:tusenskona/src/tusenskona.cpp ****     InitEncoder();
  33:tusenskona/src/tusenskona.cpp ****     InitLeds();
  34:tusenskona/src/tusenskona.cpp ****     InitKnobs();
  35:tusenskona/src/tusenskona.cpp ****     SetAudioBlockSize(48);
  36:tusenskona/src/tusenskona.cpp **** }
  37:tusenskona/src/tusenskona.cpp **** 
  38:tusenskona/src/tusenskona.cpp **** void Tusenskona::DelayMs(size_t del)
  39:tusenskona/src/tusenskona.cpp **** {
  30              		.loc 1 39 1 view -0
  31              		.cfi_startproc
  32              		@ args = 0, pretend = 0, frame = 0
  33              		@ frame_needed = 0, uses_anonymous_args = 0
  34              		@ link register save eliminated.
  40:tusenskona/src/tusenskona.cpp ****     seed.DelayMs(del);
  35              		.loc 1 40 5 view .LVU1
  36              		.loc 1 40 17 is_stmt 0 view .LVU2
  37 0000 FFF7FEBF 		b	_ZN5daisy9DaisySeed7DelayMsEj
  38              	.LVL1:
  39              		.loc 1 40 17 view .LVU3
  40              		.cfi_endproc
  41              	.LFE2569:
  43              		.section	.text._ZN5daisy10Tusenskona17SetHidUpdateRatesEv,"ax",%progbits
  44              		.align	1
  45              		.p2align 2,,3
  46              		.global	_ZN5daisy10Tusenskona17SetHidUpdateRatesEv
  47              		.syntax unified
  48              		.thumb
  49              		.thumb_func
  51              	_ZN5daisy10Tusenskona17SetHidUpdateRatesEv:
  52              	.LVL2:
  53              	.LFB2570:
  41:tusenskona/src/tusenskona.cpp **** }
  42:tusenskona/src/tusenskona.cpp **** 
  43:tusenskona/src/tusenskona.cpp **** 
  44:tusenskona/src/tusenskona.cpp **** void Tusenskona::SetHidUpdateRates()
  45:tusenskona/src/tusenskona.cpp **** {
  54              		.loc 1 45 1 is_stmt 1 view -0
  55              		.cfi_startproc
  56              		@ args = 0, pretend = 0, frame = 0
  57              		@ frame_needed = 0, uses_anonymous_args = 0
  46:tusenskona/src/tusenskona.cpp ****     for(int i = 0; i < KNOB_LAST; i++)
  58              		.loc 1 46 5 view .LVU5
  59              	.LBB16:
  60              		.loc 1 46 22 view .LVU6
  61              	.LBE16:
  45:tusenskona/src/tusenskona.cpp ****     for(int i = 0; i < KNOB_LAST; i++)
  62              		.loc 1 45 1 is_stmt 0 view .LVU7
  63 0000 F8B5     		push	{r3, r4, r5, r6, r7, lr}
  64              		.cfi_def_cfa_offset 24
  65              		.cfi_offset 3, -24
  66              		.cfi_offset 4, -20
  67              		.cfi_offset 5, -16
  68              		.cfi_offset 6, -12
  69              		.cfi_offset 7, -8
  70              		.cfi_offset 14, -4
ARM GAS  /var/folders/z2/7_lhr9dn53s9tj4s0rwtyswm0000gn/T//ccMKtZbG.s 			page 3


  45:tusenskona/src/tusenskona.cpp ****     for(int i = 0; i < KNOB_LAST; i++)
  71              		.loc 1 45 1 view .LVU8
  72 0002 0546     		mov	r5, r0
  73 0004 00F1E804 		add	r4, r0, #232
  74 0008 00F1F807 		add	r7, r0, #248
  75              	.LVL3:
  76              	.L4:
  77              	.LBB19:
  47:tusenskona/src/tusenskona.cpp ****     {
  48:tusenskona/src/tusenskona.cpp ****         knobs[i]->SetSampleRate(AudioCallbackRate());
  78              		.loc 1 48 9 is_stmt 1 discriminator 2 view .LVU9
  79              		.loc 1 48 16 is_stmt 0 discriminator 2 view .LVU10
  80 000c 54F8046B 		ldr	r6, [r4], #4
  81              	.LVL4:
  82              	.LBB17:
  83              	.LBI17:
  49:tusenskona/src/tusenskona.cpp ****     }
  50:tusenskona/src/tusenskona.cpp **** }
  51:tusenskona/src/tusenskona.cpp **** 
  52:tusenskona/src/tusenskona.cpp **** void Tusenskona::StartAudio(AudioHandle::InterleavingAudioCallback cb)
  53:tusenskona/src/tusenskona.cpp **** {
  54:tusenskona/src/tusenskona.cpp ****     seed.StartAudio(cb);
  55:tusenskona/src/tusenskona.cpp **** }
  56:tusenskona/src/tusenskona.cpp **** 
  57:tusenskona/src/tusenskona.cpp **** void Tusenskona::StartAudio(AudioHandle::AudioCallback cb)
  58:tusenskona/src/tusenskona.cpp **** {
  59:tusenskona/src/tusenskona.cpp ****     seed.StartAudio(cb);
  60:tusenskona/src/tusenskona.cpp **** }
  61:tusenskona/src/tusenskona.cpp **** 
  62:tusenskona/src/tusenskona.cpp **** void Tusenskona::ChangeAudioCallback(AudioHandle::InterleavingAudioCallback cb)
  63:tusenskona/src/tusenskona.cpp **** {
  64:tusenskona/src/tusenskona.cpp ****     seed.ChangeAudioCallback(cb);
  65:tusenskona/src/tusenskona.cpp **** }
  66:tusenskona/src/tusenskona.cpp **** 
  67:tusenskona/src/tusenskona.cpp **** void Tusenskona::ChangeAudioCallback(AudioHandle::AudioCallback cb)
  68:tusenskona/src/tusenskona.cpp **** {
  69:tusenskona/src/tusenskona.cpp ****     seed.ChangeAudioCallback(cb);
  70:tusenskona/src/tusenskona.cpp **** }
  71:tusenskona/src/tusenskona.cpp **** 
  72:tusenskona/src/tusenskona.cpp **** void Tusenskona::StopAudio()
  73:tusenskona/src/tusenskona.cpp **** {
  74:tusenskona/src/tusenskona.cpp ****     seed.StopAudio();
  75:tusenskona/src/tusenskona.cpp **** }
  76:tusenskona/src/tusenskona.cpp **** 
  77:tusenskona/src/tusenskona.cpp **** void Tusenskona::SetAudioBlockSize(size_t size)
  78:tusenskona/src/tusenskona.cpp **** {
  79:tusenskona/src/tusenskona.cpp ****     seed.SetAudioBlockSize(size);
  80:tusenskona/src/tusenskona.cpp ****     SetHidUpdateRates();
  81:tusenskona/src/tusenskona.cpp **** }
  82:tusenskona/src/tusenskona.cpp **** 
  83:tusenskona/src/tusenskona.cpp **** size_t Tusenskona::AudioBlockSize()
  84:tusenskona/src/tusenskona.cpp **** {
  85:tusenskona/src/tusenskona.cpp ****     return seed.AudioBlockSize();
  86:tusenskona/src/tusenskona.cpp **** }
  87:tusenskona/src/tusenskona.cpp **** 
  88:tusenskona/src/tusenskona.cpp **** void Tusenskona::SetAudioSampleRate(SaiHandle::Config::SampleRate samplerate)
  89:tusenskona/src/tusenskona.cpp **** {
ARM GAS  /var/folders/z2/7_lhr9dn53s9tj4s0rwtyswm0000gn/T//ccMKtZbG.s 			page 4


  90:tusenskona/src/tusenskona.cpp ****     seed.SetAudioSampleRate(samplerate);
  91:tusenskona/src/tusenskona.cpp ****     SetHidUpdateRates();
  92:tusenskona/src/tusenskona.cpp **** }
  93:tusenskona/src/tusenskona.cpp **** 
  94:tusenskona/src/tusenskona.cpp **** float Tusenskona::AudioSampleRate()
  95:tusenskona/src/tusenskona.cpp **** {
  96:tusenskona/src/tusenskona.cpp ****     return seed.AudioSampleRate();
  97:tusenskona/src/tusenskona.cpp **** }
  98:tusenskona/src/tusenskona.cpp **** 
  99:tusenskona/src/tusenskona.cpp **** float Tusenskona::AudioCallbackRate()
  84              		.loc 1 99 7 is_stmt 1 discriminator 2 view .LVU11
  85              	.LBB18:
 100:tusenskona/src/tusenskona.cpp **** {
 101:tusenskona/src/tusenskona.cpp ****     return seed.AudioCallbackRate();
  86              		.loc 1 101 5 discriminator 2 view .LVU12
  87              		.loc 1 101 34 is_stmt 0 discriminator 2 view .LVU13
  88 0010 2846     		mov	r0, r5
  89 0012 FFF7FEFF 		bl	_ZNK5daisy9DaisySeed17AudioCallbackRateEv
  90              	.LVL5:
  91              		.loc 1 101 34 discriminator 2 view .LVU14
  92              	.LBE18:
  93              	.LBE17:
  48:tusenskona/src/tusenskona.cpp ****     }
  94              		.loc 1 48 32 discriminator 2 view .LVU15
  95 0016 3046     		mov	r0, r6
  96 0018 FFF7FEFF 		bl	_ZN5daisy13AnalogControl13SetSampleRateEf
  97              	.LVL6:
  46:tusenskona/src/tusenskona.cpp ****     {
  98              		.loc 1 46 5 is_stmt 1 discriminator 2 view .LVU16
  46:tusenskona/src/tusenskona.cpp ****     {
  99              		.loc 1 46 22 discriminator 2 view .LVU17
 100 001c BC42     		cmp	r4, r7
 101 001e F5D1     		bne	.L4
 102              	.LBE19:
  50:tusenskona/src/tusenskona.cpp **** 
 103              		.loc 1 50 1 is_stmt 0 view .LVU18
 104 0020 F8BD     		pop	{r3, r4, r5, r6, r7, pc}
  50:tusenskona/src/tusenskona.cpp **** 
 105              		.loc 1 50 1 view .LVU19
 106              		.cfi_endproc
 107              	.LFE2570:
 109 0022 00BF     		.section	.text._ZN5daisy10Tusenskona10StartAudioEPFvPKfPfjE,"ax",%progbits
 110              		.align	1
 111              		.p2align 2,,3
 112              		.global	_ZN5daisy10Tusenskona10StartAudioEPFvPKfPfjE
 113              		.syntax unified
 114              		.thumb
 115              		.thumb_func
 117              	_ZN5daisy10Tusenskona10StartAudioEPFvPKfPfjE:
 118              	.LVL7:
 119              	.LFB2571:
  53:tusenskona/src/tusenskona.cpp ****     seed.StartAudio(cb);
 120              		.loc 1 53 1 is_stmt 1 view -0
 121              		.cfi_startproc
 122              		@ args = 0, pretend = 0, frame = 0
 123              		@ frame_needed = 0, uses_anonymous_args = 0
 124              		@ link register save eliminated.
ARM GAS  /var/folders/z2/7_lhr9dn53s9tj4s0rwtyswm0000gn/T//ccMKtZbG.s 			page 5


  54:tusenskona/src/tusenskona.cpp **** }
 125              		.loc 1 54 5 view .LVU21
  54:tusenskona/src/tusenskona.cpp **** }
 126              		.loc 1 54 20 is_stmt 0 view .LVU22
 127 0000 FFF7FEBF 		b	_ZN5daisy9DaisySeed10StartAudioEPFvPKfPfjE
 128              	.LVL8:
  54:tusenskona/src/tusenskona.cpp **** }
 129              		.loc 1 54 20 view .LVU23
 130              		.cfi_endproc
 131              	.LFE2571:
 133              		.section	.text._ZN5daisy10Tusenskona10StartAudioEPFvPKPKfPPfjE,"ax",%progbits
 134              		.align	1
 135              		.p2align 2,,3
 136              		.global	_ZN5daisy10Tusenskona10StartAudioEPFvPKPKfPPfjE
 137              		.syntax unified
 138              		.thumb
 139              		.thumb_func
 141              	_ZN5daisy10Tusenskona10StartAudioEPFvPKPKfPPfjE:
 142              	.LVL9:
 143              	.LFB2572:
  58:tusenskona/src/tusenskona.cpp ****     seed.StartAudio(cb);
 144              		.loc 1 58 1 is_stmt 1 view -0
 145              		.cfi_startproc
 146              		@ args = 0, pretend = 0, frame = 0
 147              		@ frame_needed = 0, uses_anonymous_args = 0
 148              		@ link register save eliminated.
  59:tusenskona/src/tusenskona.cpp **** }
 149              		.loc 1 59 5 view .LVU25
  59:tusenskona/src/tusenskona.cpp **** }
 150              		.loc 1 59 20 is_stmt 0 view .LVU26
 151 0000 FFF7FEBF 		b	_ZN5daisy9DaisySeed10StartAudioEPFvPKPKfPPfjE
 152              	.LVL10:
  59:tusenskona/src/tusenskona.cpp **** }
 153              		.loc 1 59 20 view .LVU27
 154              		.cfi_endproc
 155              	.LFE2572:
 157              		.section	.text._ZN5daisy10Tusenskona19ChangeAudioCallbackEPFvPKfPfjE,"ax",%progbits
 158              		.align	1
 159              		.p2align 2,,3
 160              		.global	_ZN5daisy10Tusenskona19ChangeAudioCallbackEPFvPKfPfjE
 161              		.syntax unified
 162              		.thumb
 163              		.thumb_func
 165              	_ZN5daisy10Tusenskona19ChangeAudioCallbackEPFvPKfPfjE:
 166              	.LVL11:
 167              	.LFB2573:
  63:tusenskona/src/tusenskona.cpp ****     seed.ChangeAudioCallback(cb);
 168              		.loc 1 63 1 is_stmt 1 view -0
 169              		.cfi_startproc
 170              		@ args = 0, pretend = 0, frame = 0
 171              		@ frame_needed = 0, uses_anonymous_args = 0
 172              		@ link register save eliminated.
  64:tusenskona/src/tusenskona.cpp **** }
 173              		.loc 1 64 5 view .LVU29
  64:tusenskona/src/tusenskona.cpp **** }
 174              		.loc 1 64 29 is_stmt 0 view .LVU30
 175 0000 FFF7FEBF 		b	_ZN5daisy9DaisySeed19ChangeAudioCallbackEPFvPKfPfjE
ARM GAS  /var/folders/z2/7_lhr9dn53s9tj4s0rwtyswm0000gn/T//ccMKtZbG.s 			page 6


 176              	.LVL12:
  64:tusenskona/src/tusenskona.cpp **** }
 177              		.loc 1 64 29 view .LVU31
 178              		.cfi_endproc
 179              	.LFE2573:
 181              		.section	.text._ZN5daisy10Tusenskona19ChangeAudioCallbackEPFvPKPKfPPfjE,"ax",%progbits
 182              		.align	1
 183              		.p2align 2,,3
 184              		.global	_ZN5daisy10Tusenskona19ChangeAudioCallbackEPFvPKPKfPPfjE
 185              		.syntax unified
 186              		.thumb
 187              		.thumb_func
 189              	_ZN5daisy10Tusenskona19ChangeAudioCallbackEPFvPKPKfPPfjE:
 190              	.LVL13:
 191              	.LFB2574:
  68:tusenskona/src/tusenskona.cpp ****     seed.ChangeAudioCallback(cb);
 192              		.loc 1 68 1 is_stmt 1 view -0
 193              		.cfi_startproc
 194              		@ args = 0, pretend = 0, frame = 0
 195              		@ frame_needed = 0, uses_anonymous_args = 0
 196              		@ link register save eliminated.
  69:tusenskona/src/tusenskona.cpp **** }
 197              		.loc 1 69 5 view .LVU33
  69:tusenskona/src/tusenskona.cpp **** }
 198              		.loc 1 69 29 is_stmt 0 view .LVU34
 199 0000 FFF7FEBF 		b	_ZN5daisy9DaisySeed19ChangeAudioCallbackEPFvPKPKfPPfjE
 200              	.LVL14:
  69:tusenskona/src/tusenskona.cpp **** }
 201              		.loc 1 69 29 view .LVU35
 202              		.cfi_endproc
 203              	.LFE2574:
 205              		.section	.text._ZN5daisy10Tusenskona9StopAudioEv,"ax",%progbits
 206              		.align	1
 207              		.p2align 2,,3
 208              		.global	_ZN5daisy10Tusenskona9StopAudioEv
 209              		.syntax unified
 210              		.thumb
 211              		.thumb_func
 213              	_ZN5daisy10Tusenskona9StopAudioEv:
 214              	.LVL15:
 215              	.LFB2575:
  73:tusenskona/src/tusenskona.cpp ****     seed.StopAudio();
 216              		.loc 1 73 1 is_stmt 1 view -0
 217              		.cfi_startproc
 218              		@ args = 0, pretend = 0, frame = 0
 219              		@ frame_needed = 0, uses_anonymous_args = 0
 220              		@ link register save eliminated.
  74:tusenskona/src/tusenskona.cpp **** }
 221              		.loc 1 74 5 view .LVU37
  74:tusenskona/src/tusenskona.cpp **** }
 222              		.loc 1 74 19 is_stmt 0 view .LVU38
 223 0000 FFF7FEBF 		b	_ZN5daisy9DaisySeed9StopAudioEv
 224              	.LVL16:
  74:tusenskona/src/tusenskona.cpp **** }
 225              		.loc 1 74 19 view .LVU39
 226              		.cfi_endproc
 227              	.LFE2575:
ARM GAS  /var/folders/z2/7_lhr9dn53s9tj4s0rwtyswm0000gn/T//ccMKtZbG.s 			page 7


 229              		.section	.text._ZN5daisy10Tusenskona17SetAudioBlockSizeEj,"ax",%progbits
 230              		.align	1
 231              		.p2align 2,,3
 232              		.global	_ZN5daisy10Tusenskona17SetAudioBlockSizeEj
 233              		.syntax unified
 234              		.thumb
 235              		.thumb_func
 237              	_ZN5daisy10Tusenskona17SetAudioBlockSizeEj:
 238              	.LVL17:
 239              	.LFB2576:
  78:tusenskona/src/tusenskona.cpp ****     seed.SetAudioBlockSize(size);
 240              		.loc 1 78 1 is_stmt 1 view -0
 241              		.cfi_startproc
 242              		@ args = 0, pretend = 0, frame = 0
 243              		@ frame_needed = 0, uses_anonymous_args = 0
  79:tusenskona/src/tusenskona.cpp ****     SetHidUpdateRates();
 244              		.loc 1 79 5 view .LVU41
  78:tusenskona/src/tusenskona.cpp ****     seed.SetAudioBlockSize(size);
 245              		.loc 1 78 1 is_stmt 0 view .LVU42
 246 0000 F8B5     		push	{r3, r4, r5, r6, r7, lr}
 247              		.cfi_def_cfa_offset 24
 248              		.cfi_offset 3, -24
 249              		.cfi_offset 4, -20
 250              		.cfi_offset 5, -16
 251              		.cfi_offset 6, -12
 252              		.cfi_offset 7, -8
 253              		.cfi_offset 14, -4
  78:tusenskona/src/tusenskona.cpp ****     seed.SetAudioBlockSize(size);
 254              		.loc 1 78 1 view .LVU43
 255 0002 0546     		mov	r5, r0
  79:tusenskona/src/tusenskona.cpp ****     SetHidUpdateRates();
 256              		.loc 1 79 27 view .LVU44
 257 0004 FFF7FEFF 		bl	_ZN5daisy9DaisySeed17SetAudioBlockSizeEj
 258              	.LVL18:
  80:tusenskona/src/tusenskona.cpp **** }
 259              		.loc 1 80 5 is_stmt 1 view .LVU45
 260              	.LBB25:
 261              	.LBI25:
  44:tusenskona/src/tusenskona.cpp **** {
 262              		.loc 1 44 6 view .LVU46
 263              	.LBB26:
  46:tusenskona/src/tusenskona.cpp ****     {
 264              		.loc 1 46 22 view .LVU47
 265 0008 05F1E804 		add	r4, r5, #232
 266 000c 05F1F807 		add	r7, r5, #248
 267              	.LVL19:
 268              	.L13:
  48:tusenskona/src/tusenskona.cpp ****     }
 269              		.loc 1 48 9 view .LVU48
  48:tusenskona/src/tusenskona.cpp ****     }
 270              		.loc 1 48 16 is_stmt 0 view .LVU49
 271 0010 54F8046B 		ldr	r6, [r4], #4
 272              	.LVL20:
 273              	.LBB27:
 274              	.LBI27:
  99:tusenskona/src/tusenskona.cpp **** {
 275              		.loc 1 99 7 is_stmt 1 view .LVU50
ARM GAS  /var/folders/z2/7_lhr9dn53s9tj4s0rwtyswm0000gn/T//ccMKtZbG.s 			page 8


 276              	.LBB28:
 277              		.loc 1 101 5 view .LVU51
 278              		.loc 1 101 34 is_stmt 0 view .LVU52
 279 0014 2846     		mov	r0, r5
 280 0016 FFF7FEFF 		bl	_ZNK5daisy9DaisySeed17AudioCallbackRateEv
 281              	.LVL21:
 282              		.loc 1 101 34 view .LVU53
 283              	.LBE28:
 284              	.LBE27:
  48:tusenskona/src/tusenskona.cpp ****     }
 285              		.loc 1 48 32 view .LVU54
 286 001a 3046     		mov	r0, r6
 287 001c FFF7FEFF 		bl	_ZN5daisy13AnalogControl13SetSampleRateEf
 288              	.LVL22:
  46:tusenskona/src/tusenskona.cpp ****     {
 289              		.loc 1 46 5 is_stmt 1 view .LVU55
  46:tusenskona/src/tusenskona.cpp ****     {
 290              		.loc 1 46 22 view .LVU56
 291 0020 BC42     		cmp	r4, r7
 292 0022 F5D1     		bne	.L13
 293              	.LBE26:
 294              	.LBE25:
  81:tusenskona/src/tusenskona.cpp **** 
 295              		.loc 1 81 1 is_stmt 0 view .LVU57
 296 0024 F8BD     		pop	{r3, r4, r5, r6, r7, pc}
  81:tusenskona/src/tusenskona.cpp **** 
 297              		.loc 1 81 1 view .LVU58
 298              		.cfi_endproc
 299              	.LFE2576:
 301 0026 00BF     		.section	.text._ZN5daisy10Tusenskona14AudioBlockSizeEv,"ax",%progbits
 302              		.align	1
 303              		.p2align 2,,3
 304              		.global	_ZN5daisy10Tusenskona14AudioBlockSizeEv
 305              		.syntax unified
 306              		.thumb
 307              		.thumb_func
 309              	_ZN5daisy10Tusenskona14AudioBlockSizeEv:
 310              	.LVL23:
 311              	.LFB2577:
  84:tusenskona/src/tusenskona.cpp ****     return seed.AudioBlockSize();
 312              		.loc 1 84 1 is_stmt 1 view -0
 313              		.cfi_startproc
 314              		@ args = 0, pretend = 0, frame = 0
 315              		@ frame_needed = 0, uses_anonymous_args = 0
 316              		@ link register save eliminated.
  85:tusenskona/src/tusenskona.cpp **** }
 317              		.loc 1 85 5 view .LVU60
  85:tusenskona/src/tusenskona.cpp **** }
 318              		.loc 1 85 31 is_stmt 0 view .LVU61
 319 0000 FFF7FEBF 		b	_ZN5daisy9DaisySeed14AudioBlockSizeEv
 320              	.LVL24:
  85:tusenskona/src/tusenskona.cpp **** }
 321              		.loc 1 85 31 view .LVU62
 322              		.cfi_endproc
 323              	.LFE2577:
 325              		.section	.text._ZN5daisy10Tusenskona18SetAudioSampleRateENS_9SaiHandle6Config10SampleRateE,"ax",%p
 326              		.align	1
ARM GAS  /var/folders/z2/7_lhr9dn53s9tj4s0rwtyswm0000gn/T//ccMKtZbG.s 			page 9


 327              		.p2align 2,,3
 328              		.global	_ZN5daisy10Tusenskona18SetAudioSampleRateENS_9SaiHandle6Config10SampleRateE
 329              		.syntax unified
 330              		.thumb
 331              		.thumb_func
 333              	_ZN5daisy10Tusenskona18SetAudioSampleRateENS_9SaiHandle6Config10SampleRateE:
 334              	.LVL25:
 335              	.LFB2578:
  89:tusenskona/src/tusenskona.cpp ****     seed.SetAudioSampleRate(samplerate);
 336              		.loc 1 89 1 is_stmt 1 view -0
 337              		.cfi_startproc
 338              		@ args = 0, pretend = 0, frame = 0
 339              		@ frame_needed = 0, uses_anonymous_args = 0
  90:tusenskona/src/tusenskona.cpp ****     SetHidUpdateRates();
 340              		.loc 1 90 5 view .LVU64
  89:tusenskona/src/tusenskona.cpp ****     seed.SetAudioSampleRate(samplerate);
 341              		.loc 1 89 1 is_stmt 0 view .LVU65
 342 0000 F8B5     		push	{r3, r4, r5, r6, r7, lr}
 343              		.cfi_def_cfa_offset 24
 344              		.cfi_offset 3, -24
 345              		.cfi_offset 4, -20
 346              		.cfi_offset 5, -16
 347              		.cfi_offset 6, -12
 348              		.cfi_offset 7, -8
 349              		.cfi_offset 14, -4
  89:tusenskona/src/tusenskona.cpp ****     seed.SetAudioSampleRate(samplerate);
 350              		.loc 1 89 1 view .LVU66
 351 0002 0546     		mov	r5, r0
  90:tusenskona/src/tusenskona.cpp ****     SetHidUpdateRates();
 352              		.loc 1 90 28 view .LVU67
 353 0004 FFF7FEFF 		bl	_ZN5daisy9DaisySeed18SetAudioSampleRateENS_9SaiHandle6Config10SampleRateE
 354              	.LVL26:
  91:tusenskona/src/tusenskona.cpp **** }
 355              		.loc 1 91 5 is_stmt 1 view .LVU68
 356              	.LBB34:
 357              	.LBI34:
  44:tusenskona/src/tusenskona.cpp **** {
 358              		.loc 1 44 6 view .LVU69
 359              	.LBB35:
  46:tusenskona/src/tusenskona.cpp ****     {
 360              		.loc 1 46 22 view .LVU70
 361 0008 05F1E804 		add	r4, r5, #232
 362 000c 05F1F807 		add	r7, r5, #248
 363              	.LVL27:
 364              	.L18:
  48:tusenskona/src/tusenskona.cpp ****     }
 365              		.loc 1 48 9 view .LVU71
  48:tusenskona/src/tusenskona.cpp ****     }
 366              		.loc 1 48 16 is_stmt 0 view .LVU72
 367 0010 54F8046B 		ldr	r6, [r4], #4
 368              	.LVL28:
 369              	.LBB36:
 370              	.LBI36:
  99:tusenskona/src/tusenskona.cpp **** {
 371              		.loc 1 99 7 is_stmt 1 view .LVU73
 372              	.LBB37:
 373              		.loc 1 101 5 view .LVU74
ARM GAS  /var/folders/z2/7_lhr9dn53s9tj4s0rwtyswm0000gn/T//ccMKtZbG.s 			page 10


 374              		.loc 1 101 34 is_stmt 0 view .LVU75
 375 0014 2846     		mov	r0, r5
 376 0016 FFF7FEFF 		bl	_ZNK5daisy9DaisySeed17AudioCallbackRateEv
 377              	.LVL29:
 378              		.loc 1 101 34 view .LVU76
 379              	.LBE37:
 380              	.LBE36:
  48:tusenskona/src/tusenskona.cpp ****     }
 381              		.loc 1 48 32 view .LVU77
 382 001a 3046     		mov	r0, r6
 383 001c FFF7FEFF 		bl	_ZN5daisy13AnalogControl13SetSampleRateEf
 384              	.LVL30:
  46:tusenskona/src/tusenskona.cpp ****     {
 385              		.loc 1 46 5 is_stmt 1 view .LVU78
  46:tusenskona/src/tusenskona.cpp ****     {
 386              		.loc 1 46 22 view .LVU79
 387 0020 BC42     		cmp	r4, r7
 388 0022 F5D1     		bne	.L18
 389              	.LBE35:
 390              	.LBE34:
  92:tusenskona/src/tusenskona.cpp **** 
 391              		.loc 1 92 1 is_stmt 0 view .LVU80
 392 0024 F8BD     		pop	{r3, r4, r5, r6, r7, pc}
  92:tusenskona/src/tusenskona.cpp **** 
 393              		.loc 1 92 1 view .LVU81
 394              		.cfi_endproc
 395              	.LFE2578:
 397 0026 00BF     		.section	.text._ZN5daisy10Tusenskona15AudioSampleRateEv,"ax",%progbits
 398              		.align	1
 399              		.p2align 2,,3
 400              		.global	_ZN5daisy10Tusenskona15AudioSampleRateEv
 401              		.syntax unified
 402              		.thumb
 403              		.thumb_func
 405              	_ZN5daisy10Tusenskona15AudioSampleRateEv:
 406              	.LVL31:
 407              	.LFB2579:
  95:tusenskona/src/tusenskona.cpp ****     return seed.AudioSampleRate();
 408              		.loc 1 95 1 is_stmt 1 view -0
 409              		.cfi_startproc
 410              		@ args = 0, pretend = 0, frame = 0
 411              		@ frame_needed = 0, uses_anonymous_args = 0
 412              		@ link register save eliminated.
  96:tusenskona/src/tusenskona.cpp **** }
 413              		.loc 1 96 5 view .LVU83
  96:tusenskona/src/tusenskona.cpp **** }
 414              		.loc 1 96 32 is_stmt 0 view .LVU84
 415 0000 FFF7FEBF 		b	_ZN5daisy9DaisySeed15AudioSampleRateEv
 416              	.LVL32:
  96:tusenskona/src/tusenskona.cpp **** }
 417              		.loc 1 96 32 view .LVU85
 418              		.cfi_endproc
 419              	.LFE2579:
 421              		.section	.text._ZN5daisy10Tusenskona17AudioCallbackRateEv,"ax",%progbits
 422              		.align	1
 423              		.p2align 2,,3
 424              		.global	_ZN5daisy10Tusenskona17AudioCallbackRateEv
ARM GAS  /var/folders/z2/7_lhr9dn53s9tj4s0rwtyswm0000gn/T//ccMKtZbG.s 			page 11


 425              		.syntax unified
 426              		.thumb
 427              		.thumb_func
 429              	_ZN5daisy10Tusenskona17AudioCallbackRateEv:
 430              	.LVL33:
 431              	.LFB2580:
 100:tusenskona/src/tusenskona.cpp ****     return seed.AudioCallbackRate();
 432              		.loc 1 100 1 is_stmt 1 view -0
 433              		.cfi_startproc
 434              		@ args = 0, pretend = 0, frame = 0
 435              		@ frame_needed = 0, uses_anonymous_args = 0
 436              		@ link register save eliminated.
 437              		.loc 1 101 5 view .LVU87
 438              		.loc 1 101 34 is_stmt 0 view .LVU88
 439 0000 FFF7FEBF 		b	_ZNK5daisy9DaisySeed17AudioCallbackRateEv
 440              	.LVL34:
 441              		.loc 1 101 34 view .LVU89
 442              		.cfi_endproc
 443              	.LFE2580:
 445              		.section	.text._ZN5daisy10Tusenskona8StartAdcEv,"ax",%progbits
 446              		.align	1
 447              		.p2align 2,,3
 448              		.global	_ZN5daisy10Tusenskona8StartAdcEv
 449              		.syntax unified
 450              		.thumb
 451              		.thumb_func
 453              	_ZN5daisy10Tusenskona8StartAdcEv:
 454              	.LVL35:
 455              	.LFB2581:
 102:tusenskona/src/tusenskona.cpp **** }
 103:tusenskona/src/tusenskona.cpp **** 
 104:tusenskona/src/tusenskona.cpp **** void Tusenskona::StartAdc()
 105:tusenskona/src/tusenskona.cpp **** {
 456              		.loc 1 105 1 is_stmt 1 view -0
 457              		.cfi_startproc
 458              		@ args = 0, pretend = 0, frame = 0
 459              		@ frame_needed = 0, uses_anonymous_args = 0
 460              		@ link register save eliminated.
 106:tusenskona/src/tusenskona.cpp ****     seed.adc.Start();
 461              		.loc 1 106 5 view .LVU91
 462              		.loc 1 106 19 is_stmt 0 view .LVU92
 463 0000 1830     		adds	r0, r0, #24
 464              	.LVL36:
 465              		.loc 1 106 19 view .LVU93
 466 0002 FFF7FEBF 		b	_ZN5daisy9AdcHandle5StartEv
 467              	.LVL37:
 468              		.loc 1 106 19 view .LVU94
 469              		.cfi_endproc
 470              	.LFE2581:
 472 0006 00BF     		.section	.text._ZN5daisy10Tusenskona7StopAdcEv,"ax",%progbits
 473              		.align	1
 474              		.p2align 2,,3
 475              		.global	_ZN5daisy10Tusenskona7StopAdcEv
 476              		.syntax unified
 477              		.thumb
 478              		.thumb_func
 480              	_ZN5daisy10Tusenskona7StopAdcEv:
ARM GAS  /var/folders/z2/7_lhr9dn53s9tj4s0rwtyswm0000gn/T//ccMKtZbG.s 			page 12


 481              	.LVL38:
 482              	.LFB2582:
 107:tusenskona/src/tusenskona.cpp **** }
 108:tusenskona/src/tusenskona.cpp **** 
 109:tusenskona/src/tusenskona.cpp **** void Tusenskona::StopAdc()
 110:tusenskona/src/tusenskona.cpp **** {
 483              		.loc 1 110 1 is_stmt 1 view -0
 484              		.cfi_startproc
 485              		@ args = 0, pretend = 0, frame = 0
 486              		@ frame_needed = 0, uses_anonymous_args = 0
 487              		@ link register save eliminated.
 111:tusenskona/src/tusenskona.cpp ****     seed.adc.Stop();
 488              		.loc 1 111 5 view .LVU96
 489              		.loc 1 111 18 is_stmt 0 view .LVU97
 490 0000 1830     		adds	r0, r0, #24
 491              	.LVL39:
 492              		.loc 1 111 18 view .LVU98
 493 0002 FFF7FEBF 		b	_ZN5daisy9AdcHandle4StopEv
 494              	.LVL40:
 495              		.loc 1 111 18 view .LVU99
 496              		.cfi_endproc
 497              	.LFE2582:
 499 0006 00BF     		.section	.text._ZN5daisy10Tusenskona21ProcessAnalogControlsEv,"ax",%progbits
 500              		.align	1
 501              		.p2align 2,,3
 502              		.global	_ZN5daisy10Tusenskona21ProcessAnalogControlsEv
 503              		.syntax unified
 504              		.thumb
 505              		.thumb_func
 507              	_ZN5daisy10Tusenskona21ProcessAnalogControlsEv:
 508              	.LVL41:
 509              	.LFB2583:
 112:tusenskona/src/tusenskona.cpp **** }
 113:tusenskona/src/tusenskona.cpp **** 
 114:tusenskona/src/tusenskona.cpp **** 
 115:tusenskona/src/tusenskona.cpp **** void Tusenskona::ProcessAnalogControls()
 116:tusenskona/src/tusenskona.cpp **** {
 510              		.loc 1 116 1 is_stmt 1 view -0
 511              		.cfi_startproc
 512              		@ args = 0, pretend = 0, frame = 0
 513              		@ frame_needed = 0, uses_anonymous_args = 0
 117:tusenskona/src/tusenskona.cpp ****     knob1.Process();
 514              		.loc 1 117 5 view .LVU101
 116:tusenskona/src/tusenskona.cpp ****     knob1.Process();
 515              		.loc 1 116 1 is_stmt 0 view .LVU102
 516 0000 10B5     		push	{r4, lr}
 517              		.cfi_def_cfa_offset 8
 518              		.cfi_offset 4, -8
 519              		.cfi_offset 14, -4
 116:tusenskona/src/tusenskona.cpp ****     knob1.Process();
 520              		.loc 1 116 1 view .LVU103
 521 0002 0446     		mov	r4, r0
 522              		.loc 1 117 18 view .LVU104
 523 0004 6830     		adds	r0, r0, #104
 524              	.LVL42:
 525              		.loc 1 117 18 view .LVU105
 526 0006 FFF7FEFF 		bl	_ZN5daisy13AnalogControl7ProcessEv
ARM GAS  /var/folders/z2/7_lhr9dn53s9tj4s0rwtyswm0000gn/T//ccMKtZbG.s 			page 13


 527              	.LVL43:
 118:tusenskona/src/tusenskona.cpp ****     knob2.Process();
 528              		.loc 1 118 5 is_stmt 1 view .LVU106
 529              		.loc 1 118 18 is_stmt 0 view .LVU107
 530 000a 04F18800 		add	r0, r4, #136
 531 000e FFF7FEFF 		bl	_ZN5daisy13AnalogControl7ProcessEv
 532              	.LVL44:
 119:tusenskona/src/tusenskona.cpp ****     knob3.Process();
 533              		.loc 1 119 5 is_stmt 1 view .LVU108
 534              		.loc 1 119 18 is_stmt 0 view .LVU109
 535 0012 04F1A800 		add	r0, r4, #168
 536 0016 FFF7FEFF 		bl	_ZN5daisy13AnalogControl7ProcessEv
 537              	.LVL45:
 120:tusenskona/src/tusenskona.cpp ****     knob4.Process();
 538              		.loc 1 120 5 is_stmt 1 view .LVU110
 539              		.loc 1 120 18 is_stmt 0 view .LVU111
 540 001a 04F1C800 		add	r0, r4, #200
 121:tusenskona/src/tusenskona.cpp **** }
 541              		.loc 1 121 1 view .LVU112
 542 001e BDE81040 		pop	{r4, lr}
 543              		.cfi_restore 14
 544              		.cfi_restore 4
 545              		.cfi_def_cfa_offset 0
 546              	.LVL46:
 120:tusenskona/src/tusenskona.cpp ****     knob4.Process();
 547              		.loc 1 120 18 view .LVU113
 548 0022 FFF7FEBF 		b	_ZN5daisy13AnalogControl7ProcessEv
 549              	.LVL47:
 120:tusenskona/src/tusenskona.cpp ****     knob4.Process();
 550              		.loc 1 120 18 view .LVU114
 551              		.cfi_endproc
 552              	.LFE2583:
 554 0026 00BF     		.section	.text._ZN5daisy10Tusenskona12GetKnobValueENS0_4KnobE,"ax",%progbits
 555              		.align	1
 556              		.p2align 2,,3
 557              		.global	_ZN5daisy10Tusenskona12GetKnobValueENS0_4KnobE
 558              		.syntax unified
 559              		.thumb
 560              		.thumb_func
 562              	_ZN5daisy10Tusenskona12GetKnobValueENS0_4KnobE:
 563              	.LVL48:
 564              	.LFB2584:
 122:tusenskona/src/tusenskona.cpp **** 
 123:tusenskona/src/tusenskona.cpp **** float Tusenskona::GetKnobValue(Knob k)
 124:tusenskona/src/tusenskona.cpp **** {
 565              		.loc 1 124 1 is_stmt 1 view -0
 566              		.cfi_startproc
 567              		@ args = 0, pretend = 0, frame = 0
 568              		@ frame_needed = 0, uses_anonymous_args = 0
 569              		@ link register save eliminated.
 125:tusenskona/src/tusenskona.cpp ****     size_t idx;
 570              		.loc 1 125 5 view .LVU116
 126:tusenskona/src/tusenskona.cpp ****     idx = k < KNOB_LAST ? k : KNOB_1;
 571              		.loc 1 126 5 view .LVU117
 572              		.loc 1 126 25 is_stmt 0 view .LVU118
 573 0000 0429     		cmp	r1, #4
 574 0002 28BF     		it	cs
ARM GAS  /var/folders/z2/7_lhr9dn53s9tj4s0rwtyswm0000gn/T//ccMKtZbG.s 			page 14


 575 0004 0021     		movcs	r1, #0
 576              	.LVL49:
 127:tusenskona/src/tusenskona.cpp ****     return knobs[idx]->Value();
 577              		.loc 1 127 5 is_stmt 1 view .LVU119
 578              	.LBB38:
 579              	.LBI38:
 580              		.file 2 "./libDaisy//src/hid/ctrl.h"
   1:./libDaisy//src/hid/ctrl.h **** #pragma once
   2:./libDaisy//src/hid/ctrl.h **** #ifndef DSY_KNOB_H
   3:./libDaisy//src/hid/ctrl.h **** #define DSY_KNOB_H /**< & */
   4:./libDaisy//src/hid/ctrl.h **** #include <stdint.h>
   5:./libDaisy//src/hid/ctrl.h **** 
   6:./libDaisy//src/hid/ctrl.h **** #ifdef __cplusplus
   7:./libDaisy//src/hid/ctrl.h **** namespace daisy
   8:./libDaisy//src/hid/ctrl.h **** {
   9:./libDaisy//src/hid/ctrl.h **** /**
  10:./libDaisy//src/hid/ctrl.h ****     @brief Hardware Interface for control inputs \n 
  11:./libDaisy//src/hid/ctrl.h ****     Primarily designed for ADC input controls such as \n 
  12:./libDaisy//src/hid/ctrl.h ****     potentiometers, and control voltage. \n 
  13:./libDaisy//src/hid/ctrl.h ****     @author Stephen Hensley
  14:./libDaisy//src/hid/ctrl.h ****     @date November 2019
  15:./libDaisy//src/hid/ctrl.h ****     @ingroup controls
  16:./libDaisy//src/hid/ctrl.h **** */
  17:./libDaisy//src/hid/ctrl.h **** class AnalogControl
  18:./libDaisy//src/hid/ctrl.h **** {
  19:./libDaisy//src/hid/ctrl.h ****   public:
  20:./libDaisy//src/hid/ctrl.h ****     /** Constructor */
  21:./libDaisy//src/hid/ctrl.h ****     AnalogControl() {}
  22:./libDaisy//src/hid/ctrl.h ****     /** destructor */
  23:./libDaisy//src/hid/ctrl.h ****     ~AnalogControl() {}
  24:./libDaisy//src/hid/ctrl.h **** 
  25:./libDaisy//src/hid/ctrl.h ****     /** 
  26:./libDaisy//src/hid/ctrl.h ****     Initializes the control
  27:./libDaisy//src/hid/ctrl.h ****     \param *adcptr is a pointer to the raw adc read value -- This can be acquired with dsy_adc_get_
  28:./libDaisy//src/hid/ctrl.h ****     \param sr is the samplerate in Hz that the Process function will be called at.
  29:./libDaisy//src/hid/ctrl.h ****     \param flip determines whether the input is flipped (i.e. 1.f - input) or not before being proc
  30:./libDaisy//src/hid/ctrl.h ****     \param invert determines whether the input is inverted (i.e. -1.f * input) or note before being
  31:./libDaisy//src/hid/ctrl.h ****     \param slew_seconds is the slew time in seconds that it takes for the control to change to a ne
  32:./libDaisy//src/hid/ctrl.h ****     */
  33:./libDaisy//src/hid/ctrl.h ****     void Init(uint16_t *adcptr,
  34:./libDaisy//src/hid/ctrl.h ****               float     sr,
  35:./libDaisy//src/hid/ctrl.h ****               bool      flip         = false,
  36:./libDaisy//src/hid/ctrl.h ****               bool      invert       = false,
  37:./libDaisy//src/hid/ctrl.h ****               float     slew_seconds = 0.002f);
  38:./libDaisy//src/hid/ctrl.h **** 
  39:./libDaisy//src/hid/ctrl.h ****     /** 
  40:./libDaisy//src/hid/ctrl.h ****     This Initializes the AnalogControl for a -5V to 5V inverted input
  41:./libDaisy//src/hid/ctrl.h ****     All of the Init details are the same otherwise
  42:./libDaisy//src/hid/ctrl.h ****     \param *adcptr Pointer to analog digital converter
  43:./libDaisy//src/hid/ctrl.h ****     \param sr Audio engine sample rate
  44:./libDaisy//src/hid/ctrl.h ****     */
  45:./libDaisy//src/hid/ctrl.h ****     void InitBipolarCv(uint16_t *adcptr, float sr);
  46:./libDaisy//src/hid/ctrl.h **** 
  47:./libDaisy//src/hid/ctrl.h ****     /** 
  48:./libDaisy//src/hid/ctrl.h ****     Filters, and transforms a raw ADC read into a normalized range.
  49:./libDaisy//src/hid/ctrl.h ****     this should be called at the rate of specified by samplerate at Init time.   
  50:./libDaisy//src/hid/ctrl.h ****     Default Initializations will return 0.0 -> 1.0
ARM GAS  /var/folders/z2/7_lhr9dn53s9tj4s0rwtyswm0000gn/T//ccMKtZbG.s 			page 15


  51:./libDaisy//src/hid/ctrl.h ****     Bi-polar CV inputs will return -1.0 -> 1.0
  52:./libDaisy//src/hid/ctrl.h ****     */
  53:./libDaisy//src/hid/ctrl.h ****     float Process();
  54:./libDaisy//src/hid/ctrl.h **** 
  55:./libDaisy//src/hid/ctrl.h ****     /** Returns the current stored value, without reprocessing */
  56:./libDaisy//src/hid/ctrl.h ****     inline float Value() const { return val_; }
 581              		.loc 2 56 18 view .LVU120
 582              	.LBB39:
 583              		.loc 2 56 34 view .LVU121
 584              		.loc 2 56 34 is_stmt 0 view .LVU122
 585              	.LBE39:
 586              	.LBE38:
 587              		.loc 1 127 21 view .LVU123
 588 0006 3A31     		adds	r1, r1, #58
 589              	.LBB41:
 590              	.LBB40:
 591              		.loc 2 56 41 view .LVU124
 592 0008 50F82130 		ldr	r3, [r0, r1, lsl #2]
 593              	.LBE40:
 594              	.LBE41:
 128:tusenskona/src/tusenskona.cpp **** }
 595              		.loc 1 128 1 view .LVU125
 596 000c 93ED030A 		vldr.32	s0, [r3, #12]
 597 0010 7047     		bx	lr
 598              		.cfi_endproc
 599              	.LFE2584:
 601 0012 00BF     		.section	.text._ZN5daisy10Tusenskona22ProcessDigitalControlsEv,"ax",%progbits
 602              		.align	1
 603              		.p2align 2,,3
 604              		.global	_ZN5daisy10Tusenskona22ProcessDigitalControlsEv
 605              		.syntax unified
 606              		.thumb
 607              		.thumb_func
 609              	_ZN5daisy10Tusenskona22ProcessDigitalControlsEv:
 610              	.LVL50:
 611              	.LFB2585:
 129:tusenskona/src/tusenskona.cpp **** 
 130:tusenskona/src/tusenskona.cpp **** void Tusenskona::ProcessDigitalControls()
 131:tusenskona/src/tusenskona.cpp **** {
 612              		.loc 1 131 1 is_stmt 1 view -0
 613              		.cfi_startproc
 614              		@ args = 0, pretend = 0, frame = 0
 615              		@ frame_needed = 0, uses_anonymous_args = 0
 132:tusenskona/src/tusenskona.cpp ****     encoder.Debounce();
 616              		.loc 1 132 5 view .LVU127
 131:tusenskona/src/tusenskona.cpp ****     encoder.Debounce();
 617              		.loc 1 131 1 is_stmt 0 view .LVU128
 618 0000 10B5     		push	{r4, lr}
 619              		.cfi_def_cfa_offset 8
 620              		.cfi_offset 4, -8
 621              		.cfi_offset 14, -4
 131:tusenskona/src/tusenskona.cpp ****     encoder.Debounce();
 622              		.loc 1 131 1 view .LVU129
 623 0002 0446     		mov	r4, r0
 624              		.loc 1 132 21 view .LVU130
 625 0004 4030     		adds	r0, r0, #64
 626              	.LVL51:
ARM GAS  /var/folders/z2/7_lhr9dn53s9tj4s0rwtyswm0000gn/T//ccMKtZbG.s 			page 16


 627              		.loc 1 132 21 view .LVU131
 628 0006 FFF7FEFF 		bl	_ZN5daisy7Encoder8DebounceEv
 629              	.LVL52:
 133:tusenskona/src/tusenskona.cpp ****     button1.Debounce();
 630              		.loc 1 133 5 is_stmt 1 view .LVU132
 631              		.loc 1 133 21 is_stmt 0 view .LVU133
 632 000a 04F1F800 		add	r0, r4, #248
 633 000e FFF7FEFF 		bl	_ZN5daisy6Switch8DebounceEv
 634              	.LVL53:
 134:tusenskona/src/tusenskona.cpp ****     button2.Debounce();
 635              		.loc 1 134 5 is_stmt 1 view .LVU134
 636              		.loc 1 134 21 is_stmt 0 view .LVU135
 637 0012 04F58470 		add	r0, r4, #264
 135:tusenskona/src/tusenskona.cpp **** }
 638              		.loc 1 135 1 view .LVU136
 639 0016 BDE81040 		pop	{r4, lr}
 640              		.cfi_restore 14
 641              		.cfi_restore 4
 642              		.cfi_def_cfa_offset 0
 643              	.LVL54:
 134:tusenskona/src/tusenskona.cpp ****     button2.Debounce();
 644              		.loc 1 134 21 view .LVU137
 645 001a FFF7FEBF 		b	_ZN5daisy6Switch8DebounceEv
 646              	.LVL55:
 134:tusenskona/src/tusenskona.cpp ****     button2.Debounce();
 647              		.loc 1 134 21 view .LVU138
 648              		.cfi_endproc
 649              	.LFE2585:
 651 001e 00BF     		.section	.text._ZN5daisy10Tusenskona9ClearLedsEv,"ax",%progbits
 652              		.align	1
 653              		.p2align 2,,3
 654              		.global	_ZN5daisy10Tusenskona9ClearLedsEv
 655              		.syntax unified
 656              		.thumb
 657              		.thumb_func
 659              	_ZN5daisy10Tusenskona9ClearLedsEv:
 660              	.LVL56:
 661              	.LFB2586:
 136:tusenskona/src/tusenskona.cpp **** 
 137:tusenskona/src/tusenskona.cpp **** void Tusenskona::ClearLeds()
 138:tusenskona/src/tusenskona.cpp **** {
 662              		.loc 1 138 1 is_stmt 1 view -0
 663              		.cfi_startproc
 664              		@ args = 0, pretend = 0, frame = 0
 665              		@ frame_needed = 0, uses_anonymous_args = 0
 666              		@ link register save eliminated.
 139:tusenskona/src/tusenskona.cpp ****     led.Set(0.0f, 0.0f, 0.0f);
 667              		.loc 1 139 5 view .LVU140
 668              		.loc 1 139 12 is_stmt 0 view .LVU141
 669 0000 9FED041A 		vldr.32	s2, .L32
 670 0004 00F59070 		add	r0, r0, #288
 671              	.LVL57:
 672              		.loc 1 139 12 view .LVU142
 673 0008 F0EE410A 		vmov.f32	s1, s2
 674 000c B0EE410A 		vmov.f32	s0, s2
 675 0010 FFF7FEBF 		b	_ZN5daisy6RgbLed3SetEfff
 676              	.LVL58:
ARM GAS  /var/folders/z2/7_lhr9dn53s9tj4s0rwtyswm0000gn/T//ccMKtZbG.s 			page 17


 677              	.L33:
 678              		.loc 1 139 12 view .LVU143
 679              		.align	2
 680              	.L32:
 681 0014 00000000 		.word	0
 682              		.cfi_endproc
 683              	.LFE2586:
 685              		.section	.text._ZN5daisy10Tusenskona10UpdateLedsEv,"ax",%progbits
 686              		.align	1
 687              		.p2align 2,,3
 688              		.global	_ZN5daisy10Tusenskona10UpdateLedsEv
 689              		.syntax unified
 690              		.thumb
 691              		.thumb_func
 693              	_ZN5daisy10Tusenskona10UpdateLedsEv:
 694              	.LVL59:
 695              	.LFB2587:
 140:tusenskona/src/tusenskona.cpp **** }
 141:tusenskona/src/tusenskona.cpp **** 
 142:tusenskona/src/tusenskona.cpp **** void Tusenskona::UpdateLeds()
 143:tusenskona/src/tusenskona.cpp **** {
 696              		.loc 1 143 1 is_stmt 1 view -0
 697              		.cfi_startproc
 698              		@ args = 0, pretend = 0, frame = 0
 699              		@ frame_needed = 0, uses_anonymous_args = 0
 700              		@ link register save eliminated.
 144:tusenskona/src/tusenskona.cpp ****     led.Update();
 701              		.loc 1 144 5 view .LVU145
 702              		.loc 1 144 15 is_stmt 0 view .LVU146
 703 0000 00F59070 		add	r0, r0, #288
 704              	.LVL60:
 705              		.loc 1 144 15 view .LVU147
 706 0004 FFF7FEBF 		b	_ZN5daisy6RgbLed6UpdateEv
 707              	.LVL61:
 708              		.loc 1 144 15 view .LVU148
 709              		.cfi_endproc
 710              	.LFE2587:
 712              		.section	.text._ZN5daisy10Tusenskona11InitButtonsEv,"ax",%progbits
 713              		.align	1
 714              		.p2align 2,,3
 715              		.global	_ZN5daisy10Tusenskona11InitButtonsEv
 716              		.syntax unified
 717              		.thumb
 718              		.thumb_func
 720              	_ZN5daisy10Tusenskona11InitButtonsEv:
 721              	.LVL62:
 722              	.LFB2588:
 145:tusenskona/src/tusenskona.cpp **** }
 146:tusenskona/src/tusenskona.cpp **** 
 147:tusenskona/src/tusenskona.cpp **** void Tusenskona::InitButtons()
 148:tusenskona/src/tusenskona.cpp **** {
 723              		.loc 1 148 1 is_stmt 1 view -0
 724              		.cfi_startproc
 725              		@ args = 0, pretend = 0, frame = 16
 726              		@ frame_needed = 0, uses_anonymous_args = 0
 149:tusenskona/src/tusenskona.cpp ****     // button1
 150:tusenskona/src/tusenskona.cpp ****     button1.Init(seed.GetPin(SW_1_PIN));
ARM GAS  /var/folders/z2/7_lhr9dn53s9tj4s0rwtyswm0000gn/T//ccMKtZbG.s 			page 18


 727              		.loc 1 150 5 view .LVU150
 148:tusenskona/src/tusenskona.cpp ****     // button1
 728              		.loc 1 148 1 is_stmt 0 view .LVU151
 729 0000 70B5     		push	{r4, r5, r6, lr}
 730              		.cfi_def_cfa_offset 16
 731              		.cfi_offset 4, -16
 732              		.cfi_offset 5, -12
 733              		.cfi_offset 6, -8
 734              		.cfi_offset 14, -4
 735 0002 0446     		mov	r4, r0
 736 0004 84B0     		sub	sp, sp, #16
 737              		.cfi_def_cfa_offset 32
 738              		.loc 1 150 17 view .LVU152
 739 0006 9FED110A 		vldr.32	s0, .L37
 740 000a 1B20     		movs	r0, #27
 741              	.LVL63:
 742              		.loc 1 150 17 view .LVU153
 743 000c 04F1F806 		add	r6, r4, #248
 151:tusenskona/src/tusenskona.cpp ****     // button2
 152:tusenskona/src/tusenskona.cpp ****     button2.Init(seed.GetPin(SW_2_PIN));
 744              		.loc 1 152 17 view .LVU154
 745 0010 04F58475 		add	r5, r4, #264
 150:tusenskona/src/tusenskona.cpp ****     // button2
 746              		.loc 1 150 17 view .LVU155
 747 0014 8DED010A 		vstr.32	s0, [sp, #4]	@ int
 748 0018 FFF7FEFF 		bl	_ZN5daisy9DaisySeed6GetPinEh
 749              	.LVL64:
 750 001c ADF80800 		strh	r0, [sp, #8]	@ movhi
 751 0020 3046     		mov	r0, r6
 752 0022 9DED010A 		vldr.32	s0, [sp, #4]	@ int
 753 0026 0299     		ldr	r1, [sp, #8]
 754 0028 FFF7FEFF 		bl	_ZN5daisy6Switch4InitE12dsy_gpio_pinf
 755              	.LVL65:
 756              		.loc 1 152 5 is_stmt 1 view .LVU156
 757              		.loc 1 152 17 is_stmt 0 view .LVU157
 758 002c 1820     		movs	r0, #24
 759 002e FFF7FEFF 		bl	_ZN5daisy9DaisySeed6GetPinEh
 760              	.LVL66:
 761 0032 ADF80C00 		strh	r0, [sp, #12]	@ movhi
 762 0036 9DED010A 		vldr.32	s0, [sp, #4]	@ int
 763 003a 2846     		mov	r0, r5
 764 003c 0399     		ldr	r1, [sp, #12]
 765 003e FFF7FEFF 		bl	_ZN5daisy6Switch4InitE12dsy_gpio_pinf
 766              	.LVL67:
 153:tusenskona/src/tusenskona.cpp **** 
 154:tusenskona/src/tusenskona.cpp ****     buttons[BUTTON_1] = &button1;
 767              		.loc 1 154 5 is_stmt 1 view .LVU158
 155:tusenskona/src/tusenskona.cpp ****     buttons[BUTTON_2] = &button2;
 768              		.loc 1 155 23 is_stmt 0 view .LVU159
 769 0042 C4E94665 		strd	r6, r5, [r4, #280]
 156:tusenskona/src/tusenskona.cpp **** }
 770              		.loc 1 156 1 view .LVU160
 771 0046 04B0     		add	sp, sp, #16
 772              		.cfi_def_cfa_offset 16
 773              		@ sp needed
 774 0048 70BD     		pop	{r4, r5, r6, pc}
 775              	.LVL68:
ARM GAS  /var/folders/z2/7_lhr9dn53s9tj4s0rwtyswm0000gn/T//ccMKtZbG.s 			page 19


 776              	.L38:
 777              		.loc 1 156 1 view .LVU161
 778 004a 00BF     		.align	2
 779              	.L37:
 780 004c 00000000 		.word	0
 781              		.cfi_endproc
 782              	.LFE2588:
 784              		.section	.text._ZN5daisy10Tusenskona11InitEncoderEv,"ax",%progbits
 785              		.align	1
 786              		.p2align 2,,3
 787              		.global	_ZN5daisy10Tusenskona11InitEncoderEv
 788              		.syntax unified
 789              		.thumb
 790              		.thumb_func
 792              	_ZN5daisy10Tusenskona11InitEncoderEv:
 793              	.LVL69:
 794              	.LFB2589:
 157:tusenskona/src/tusenskona.cpp **** 
 158:tusenskona/src/tusenskona.cpp **** void Tusenskona::InitEncoder()
 159:tusenskona/src/tusenskona.cpp **** {
 795              		.loc 1 159 1 is_stmt 1 view -0
 796              		.cfi_startproc
 797              		@ args = 0, pretend = 0, frame = 16
 798              		@ frame_needed = 0, uses_anonymous_args = 0
 160:tusenskona/src/tusenskona.cpp ****     dsy_gpio_pin a, b, click;
 799              		.loc 1 160 5 view .LVU163
 161:tusenskona/src/tusenskona.cpp ****     a     = seed.GetPin(ENC_A_PIN);
 800              		.loc 1 161 5 view .LVU164
 159:tusenskona/src/tusenskona.cpp ****     dsy_gpio_pin a, b, click;
 801              		.loc 1 159 1 is_stmt 0 view .LVU165
 802 0000 10B5     		push	{r4, lr}
 803              		.cfi_def_cfa_offset 8
 804              		.cfi_offset 4, -8
 805              		.cfi_offset 14, -4
 806 0002 0446     		mov	r4, r0
 807 0004 84B0     		sub	sp, sp, #16
 808              		.cfi_def_cfa_offset 24
 809              		.loc 1 161 34 view .LVU166
 810 0006 1A20     		movs	r0, #26
 811              	.LVL70:
 812              		.loc 1 161 34 view .LVU167
 813 0008 FFF7FEFF 		bl	_ZN5daisy9DaisySeed6GetPinEh
 814              	.LVL71:
 815 000c 0346     		mov	r3, r0	@ movhi
 162:tusenskona/src/tusenskona.cpp ****     b     = seed.GetPin(ENC_B_PIN);
 816              		.loc 1 162 34 view .LVU168
 817 000e 1920     		movs	r0, #25
 161:tusenskona/src/tusenskona.cpp ****     a     = seed.GetPin(ENC_A_PIN);
 818              		.loc 1 161 34 view .LVU169
 819 0010 ADF80430 		strh	r3, [sp, #4]	@ movhi
 820              		.loc 1 162 5 is_stmt 1 view .LVU170
 821              		.loc 1 162 34 is_stmt 0 view .LVU171
 822 0014 FFF7FEFF 		bl	_ZN5daisy9DaisySeed6GetPinEh
 823              	.LVL72:
 824 0018 0346     		mov	r3, r0	@ movhi
 163:tusenskona/src/tusenskona.cpp ****     click = seed.GetPin(ENC_CLICK_PIN);
 825              		.loc 1 163 38 view .LVU172
ARM GAS  /var/folders/z2/7_lhr9dn53s9tj4s0rwtyswm0000gn/T//ccMKtZbG.s 			page 20


 826 001a 0E20     		movs	r0, #14
 162:tusenskona/src/tusenskona.cpp ****     b     = seed.GetPin(ENC_B_PIN);
 827              		.loc 1 162 34 view .LVU173
 828 001c ADF80830 		strh	r3, [sp, #8]	@ movhi
 829              		.loc 1 163 5 is_stmt 1 view .LVU174
 830              		.loc 1 163 38 is_stmt 0 view .LVU175
 831 0020 FFF7FEFF 		bl	_ZN5daisy9DaisySeed6GetPinEh
 832              	.LVL73:
 833 0024 ADF80C00 		strh	r0, [sp, #12]	@ movhi
 164:tusenskona/src/tusenskona.cpp ****     encoder.Init(a, b, click);
 834              		.loc 1 164 5 is_stmt 1 view .LVU176
 835              		.loc 1 164 17 is_stmt 0 view .LVU177
 836 0028 04F14000 		add	r0, r4, #64
 837 002c 9FED040A 		vldr.32	s0, .L41
 838 0030 039B     		ldr	r3, [sp, #12]
 839 0032 DDE90112 		ldrd	r1, r2, [sp, #4]
 165:tusenskona/src/tusenskona.cpp **** }
 840              		.loc 1 165 1 view .LVU178
 841 0036 04B0     		add	sp, sp, #16
 842              		.cfi_def_cfa_offset 8
 843              		@ sp needed
 844 0038 BDE81040 		pop	{r4, lr}
 845              		.cfi_restore 14
 846              		.cfi_restore 4
 847              		.cfi_def_cfa_offset 0
 848              	.LVL74:
 164:tusenskona/src/tusenskona.cpp ****     encoder.Init(a, b, click);
 849              		.loc 1 164 17 view .LVU179
 850 003c FFF7FEBF 		b	_ZN5daisy7Encoder4InitE12dsy_gpio_pinS1_S1_f
 851              	.LVL75:
 852              	.L42:
 164:tusenskona/src/tusenskona.cpp ****     encoder.Init(a, b, click);
 853              		.loc 1 164 17 view .LVU180
 854              		.align	2
 855              	.L41:
 856 0040 00000000 		.word	0
 857              		.cfi_endproc
 858              	.LFE2589:
 860              		.section	.text._ZN5daisy10Tusenskona8InitLedsEv,"ax",%progbits
 861              		.align	1
 862              		.p2align 2,,3
 863              		.global	_ZN5daisy10Tusenskona8InitLedsEv
 864              		.syntax unified
 865              		.thumb
 866              		.thumb_func
 868              	_ZN5daisy10Tusenskona8InitLedsEv:
 869              	.LVL76:
 870              	.LFB2590:
 166:tusenskona/src/tusenskona.cpp **** 
 167:tusenskona/src/tusenskona.cpp **** void Tusenskona::InitLeds()
 168:tusenskona/src/tusenskona.cpp **** {
 871              		.loc 1 168 1 is_stmt 1 view -0
 872              		.cfi_startproc
 873              		@ args = 0, pretend = 0, frame = 16
 874              		@ frame_needed = 0, uses_anonymous_args = 0
 875              		.loc 1 168 1 is_stmt 0 view .LVU182
 876 0000 10B5     		push	{r4, lr}
ARM GAS  /var/folders/z2/7_lhr9dn53s9tj4s0rwtyswm0000gn/T//ccMKtZbG.s 			page 21


 877              		.cfi_def_cfa_offset 8
 878              		.cfi_offset 4, -8
 879              		.cfi_offset 14, -4
 880 0002 0446     		mov	r4, r0
 881 0004 86B0     		sub	sp, sp, #24
 882              		.cfi_def_cfa_offset 32
 169:tusenskona/src/tusenskona.cpp ****     dsy_gpio_pin rpin, gpin, bpin;
 170:tusenskona/src/tusenskona.cpp **** 
 171:tusenskona/src/tusenskona.cpp ****     rpin = seed.GetPin(LED_R_PIN);
 883              		.loc 1 171 33 view .LVU183
 884 0006 1C20     		movs	r0, #28
 885              	.LVL77:
 169:tusenskona/src/tusenskona.cpp ****     dsy_gpio_pin rpin, gpin, bpin;
 886              		.loc 1 169 5 is_stmt 1 view .LVU184
 887              		.loc 1 171 5 view .LVU185
 888              		.loc 1 171 33 is_stmt 0 view .LVU186
 889 0008 FFF7FEFF 		bl	_ZN5daisy9DaisySeed6GetPinEh
 890              	.LVL78:
 891 000c 0346     		mov	r3, r0	@ movhi
 172:tusenskona/src/tusenskona.cpp ****     gpin = seed.GetPin(LED_G_PIN);
 892              		.loc 1 172 33 view .LVU187
 893 000e 1720     		movs	r0, #23
 173:tusenskona/src/tusenskona.cpp ****     bpin = seed.GetPin(LED_B_PIN);
 174:tusenskona/src/tusenskona.cpp ****     led.Init(rpin, gpin, bpin, false);
 894              		.loc 1 174 13 view .LVU188
 895 0010 04F59074 		add	r4, r4, #288
 896              	.LVL79:
 171:tusenskona/src/tusenskona.cpp ****     gpin = seed.GetPin(LED_G_PIN);
 897              		.loc 1 171 33 view .LVU189
 898 0014 ADF80C30 		strh	r3, [sp, #12]	@ movhi
 172:tusenskona/src/tusenskona.cpp ****     gpin = seed.GetPin(LED_G_PIN);
 899              		.loc 1 172 5 is_stmt 1 view .LVU190
 172:tusenskona/src/tusenskona.cpp ****     gpin = seed.GetPin(LED_G_PIN);
 900              		.loc 1 172 33 is_stmt 0 view .LVU191
 901 0018 FFF7FEFF 		bl	_ZN5daisy9DaisySeed6GetPinEh
 902              	.LVL80:
 903 001c 0346     		mov	r3, r0	@ movhi
 173:tusenskona/src/tusenskona.cpp ****     bpin = seed.GetPin(LED_B_PIN);
 904              		.loc 1 173 33 view .LVU192
 905 001e 1620     		movs	r0, #22
 172:tusenskona/src/tusenskona.cpp ****     gpin = seed.GetPin(LED_G_PIN);
 906              		.loc 1 172 33 view .LVU193
 907 0020 ADF81030 		strh	r3, [sp, #16]	@ movhi
 173:tusenskona/src/tusenskona.cpp ****     bpin = seed.GetPin(LED_B_PIN);
 908              		.loc 1 173 5 is_stmt 1 view .LVU194
 173:tusenskona/src/tusenskona.cpp ****     bpin = seed.GetPin(LED_B_PIN);
 909              		.loc 1 173 33 is_stmt 0 view .LVU195
 910 0024 FFF7FEFF 		bl	_ZN5daisy9DaisySeed6GetPinEh
 911              	.LVL81:
 912              		.loc 1 174 13 view .LVU196
 913 0028 0023     		movs	r3, #0
 173:tusenskona/src/tusenskona.cpp ****     bpin = seed.GetPin(LED_B_PIN);
 914              		.loc 1 173 33 view .LVU197
 915 002a ADF81400 		strh	r0, [sp, #20]	@ movhi
 916              		.loc 1 174 5 is_stmt 1 view .LVU198
 917              		.loc 1 174 13 is_stmt 0 view .LVU199
 918 002e 2046     		mov	r0, r4
ARM GAS  /var/folders/z2/7_lhr9dn53s9tj4s0rwtyswm0000gn/T//ccMKtZbG.s 			page 22


 919 0030 0093     		str	r3, [sp]
 920 0032 059B     		ldr	r3, [sp, #20]
 921 0034 DDE90312 		ldrd	r1, r2, [sp, #12]
 922 0038 FFF7FEFF 		bl	_ZN5daisy6RgbLed4InitE12dsy_gpio_pinS1_S1_b
 923              	.LVL82:
 175:tusenskona/src/tusenskona.cpp **** 
 176:tusenskona/src/tusenskona.cpp ****     ClearLeds();
 924              		.loc 1 176 5 is_stmt 1 view .LVU200
 925              	.LBB42:
 926              	.LBI42:
 137:tusenskona/src/tusenskona.cpp **** {
 927              		.loc 1 137 6 view .LVU201
 928              	.LBB43:
 139:tusenskona/src/tusenskona.cpp **** }
 929              		.loc 1 139 5 view .LVU202
 139:tusenskona/src/tusenskona.cpp **** }
 930              		.loc 1 139 12 is_stmt 0 view .LVU203
 931 003c 9FED071A 		vldr.32	s2, .L45
 932 0040 2046     		mov	r0, r4
 933 0042 F0EE410A 		vmov.f32	s1, s2
 934 0046 B0EE410A 		vmov.f32	s0, s2
 935 004a FFF7FEFF 		bl	_ZN5daisy6RgbLed3SetEfff
 936              	.LVL83:
 139:tusenskona/src/tusenskona.cpp **** }
 937              		.loc 1 139 12 view .LVU204
 938              	.LBE43:
 939              	.LBE42:
 177:tusenskona/src/tusenskona.cpp ****     UpdateLeds();
 940              		.loc 1 177 5 is_stmt 1 view .LVU205
 941              	.LBB44:
 942              	.LBI44:
 142:tusenskona/src/tusenskona.cpp **** {
 943              		.loc 1 142 6 view .LVU206
 944              	.LBB45:
 144:tusenskona/src/tusenskona.cpp **** }
 945              		.loc 1 144 5 view .LVU207
 144:tusenskona/src/tusenskona.cpp **** }
 946              		.loc 1 144 15 is_stmt 0 view .LVU208
 947 004e 2046     		mov	r0, r4
 948              	.LBE45:
 949              	.LBE44:
 178:tusenskona/src/tusenskona.cpp **** }
 950              		.loc 1 178 1 view .LVU209
 951 0050 06B0     		add	sp, sp, #24
 952              		.cfi_def_cfa_offset 8
 953              		@ sp needed
 954 0052 BDE81040 		pop	{r4, lr}
 955              		.cfi_restore 14
 956              		.cfi_restore 4
 957              		.cfi_def_cfa_offset 0
 958              	.LVL84:
 959              	.LBB47:
 960              	.LBB46:
 144:tusenskona/src/tusenskona.cpp **** }
 961              		.loc 1 144 15 view .LVU210
 962 0056 FFF7FEBF 		b	_ZN5daisy6RgbLed6UpdateEv
 963              	.LVL85:
ARM GAS  /var/folders/z2/7_lhr9dn53s9tj4s0rwtyswm0000gn/T//ccMKtZbG.s 			page 23


 964              	.L46:
 144:tusenskona/src/tusenskona.cpp **** }
 965              		.loc 1 144 15 view .LVU211
 966 005a 00BF     		.align	2
 967              	.L45:
 968 005c 00000000 		.word	0
 969              	.LBE46:
 970              	.LBE47:
 971              		.cfi_endproc
 972              	.LFE2590:
 974              		.section	.text._ZN5daisy10Tusenskona9InitKnobsEv,"ax",%progbits
 975              		.align	1
 976              		.p2align 2,,3
 977              		.global	_ZN5daisy10Tusenskona9InitKnobsEv
 978              		.syntax unified
 979              		.thumb
 980              		.thumb_func
 982              	_ZN5daisy10Tusenskona9InitKnobsEv:
 983              	.LVL86:
 984              	.LFB2591:
 179:tusenskona/src/tusenskona.cpp **** void Tusenskona::InitKnobs()
 180:tusenskona/src/tusenskona.cpp **** {
 985              		.loc 1 180 1 is_stmt 1 view -0
 986              		.cfi_startproc
 987              		@ args = 0, pretend = 0, frame = 96
 988              		@ frame_needed = 0, uses_anonymous_args = 0
 181:tusenskona/src/tusenskona.cpp ****     // Configure the ADC channels using the desired pin
 182:tusenskona/src/tusenskona.cpp ****     AdcChannelConfig knob_init[KNOB_LAST];
 989              		.loc 1 182 5 view .LVU213
 183:tusenskona/src/tusenskona.cpp ****     knob_init[KNOB_1].InitSingle(seed.GetPin(KNOB_1_PIN));
 990              		.loc 1 183 5 view .LVU214
 180:tusenskona/src/tusenskona.cpp ****     // Configure the ADC channels using the desired pin
 991              		.loc 1 180 1 is_stmt 0 view .LVU215
 992 0000 2DE9F041 		push	{r4, r5, r6, r7, r8, lr}
 993              		.cfi_def_cfa_offset 24
 994              		.cfi_offset 4, -24
 995              		.cfi_offset 5, -20
 996              		.cfi_offset 6, -16
 997              		.cfi_offset 7, -12
 998              		.cfi_offset 8, -8
 999              		.cfi_offset 14, -4
 1000 0004 98B0     		sub	sp, sp, #96
 1001              		.cfi_def_cfa_offset 120
 180:tusenskona/src/tusenskona.cpp ****     // Configure the ADC channels using the desired pin
 1002              		.loc 1 180 1 view .LVU216
 1003 0006 0546     		mov	r5, r0
 1004              		.loc 1 183 33 view .LVU217
 1005 0008 1020     		movs	r0, #16
 1006              	.LVL87:
 1007              	.LBB48:
 184:tusenskona/src/tusenskona.cpp ****     knob_init[KNOB_2].InitSingle(seed.GetPin(KNOB_2_PIN));
 185:tusenskona/src/tusenskona.cpp ****     knob_init[KNOB_3].InitSingle(seed.GetPin(KNOB_3_PIN));
 186:tusenskona/src/tusenskona.cpp ****     knob_init[KNOB_4].InitSingle(seed.GetPin(KNOB_4_PIN));
 187:tusenskona/src/tusenskona.cpp ****     // Initialize with the knob init struct w/ 2 members
 188:tusenskona/src/tusenskona.cpp ****     // Set Oversampling to 32x
 189:tusenskona/src/tusenskona.cpp ****     seed.adc.Init(knob_init, KNOB_LAST);
 190:tusenskona/src/tusenskona.cpp ****     // Make an array of pointers to the knobs.
ARM GAS  /var/folders/z2/7_lhr9dn53s9tj4s0rwtyswm0000gn/T//ccMKtZbG.s 			page 24


 191:tusenskona/src/tusenskona.cpp ****     knobs[KNOB_1] = &knob1;
 192:tusenskona/src/tusenskona.cpp ****     knobs[KNOB_2] = &knob2;
 193:tusenskona/src/tusenskona.cpp ****     knobs[KNOB_3] = &knob3;
 194:tusenskona/src/tusenskona.cpp ****     knobs[KNOB_4] = &knob4;
 195:tusenskona/src/tusenskona.cpp ****     for(int i = 0; i < KNOB_LAST; i++)
 1008              		.loc 1 195 13 view .LVU218
 1009 000a 0024     		movs	r4, #0
 1010              	.LBE48:
 183:tusenskona/src/tusenskona.cpp ****     knob_init[KNOB_2].InitSingle(seed.GetPin(KNOB_2_PIN));
 1011              		.loc 1 183 33 view .LVU219
 1012 000c FFF7FEFF 		bl	_ZN5daisy9DaisySeed6GetPinEh
 1013              	.LVL88:
 1014 0010 ADF80800 		strh	r0, [sp, #8]	@ movhi
 1015 0014 0222     		movs	r2, #2
 1016 0016 0299     		ldr	r1, [sp, #8]
 1017 0018 06A8     		add	r0, sp, #24
 189:tusenskona/src/tusenskona.cpp ****     // Make an array of pointers to the knobs.
 1018              		.loc 1 189 18 view .LVU220
 1019 001a 05F11808 		add	r8, r5, #24
 183:tusenskona/src/tusenskona.cpp ****     knob_init[KNOB_2].InitSingle(seed.GetPin(KNOB_2_PIN));
 1020              		.loc 1 183 33 view .LVU221
 1021 001e FFF7FEFF 		bl	_ZN5daisy16AdcChannelConfig10InitSingleE12dsy_gpio_pinNS0_15ConversionSpeedE
 1022              	.LVL89:
 184:tusenskona/src/tusenskona.cpp ****     knob_init[KNOB_2].InitSingle(seed.GetPin(KNOB_2_PIN));
 1023              		.loc 1 184 5 is_stmt 1 view .LVU222
 184:tusenskona/src/tusenskona.cpp ****     knob_init[KNOB_2].InitSingle(seed.GetPin(KNOB_2_PIN));
 1024              		.loc 1 184 33 is_stmt 0 view .LVU223
 1025 0022 1120     		movs	r0, #17
 1026 0024 FFF7FEFF 		bl	_ZN5daisy9DaisySeed6GetPinEh
 1027              	.LVL90:
 1028 0028 ADF80C00 		strh	r0, [sp, #12]	@ movhi
 1029 002c 0222     		movs	r2, #2
 1030 002e 0399     		ldr	r1, [sp, #12]
 1031 0030 0DF12A00 		add	r0, sp, #42
 191:tusenskona/src/tusenskona.cpp ****     knobs[KNOB_2] = &knob2;
 1032              		.loc 1 191 21 view .LVU224
 1033 0034 05F16806 		add	r6, r5, #104
 184:tusenskona/src/tusenskona.cpp ****     knob_init[KNOB_3].InitSingle(seed.GetPin(KNOB_3_PIN));
 1034              		.loc 1 184 33 view .LVU225
 1035 0038 FFF7FEFF 		bl	_ZN5daisy16AdcChannelConfig10InitSingleE12dsy_gpio_pinNS0_15ConversionSpeedE
 1036              	.LVL91:
 185:tusenskona/src/tusenskona.cpp ****     knob_init[KNOB_4].InitSingle(seed.GetPin(KNOB_4_PIN));
 1037              		.loc 1 185 5 is_stmt 1 view .LVU226
 185:tusenskona/src/tusenskona.cpp ****     knob_init[KNOB_4].InitSingle(seed.GetPin(KNOB_4_PIN));
 1038              		.loc 1 185 33 is_stmt 0 view .LVU227
 1039 003c 1220     		movs	r0, #18
 1040 003e FFF7FEFF 		bl	_ZN5daisy9DaisySeed6GetPinEh
 1041              	.LVL92:
 1042 0042 ADF81000 		strh	r0, [sp, #16]	@ movhi
 1043 0046 0222     		movs	r2, #2
 1044 0048 0499     		ldr	r1, [sp, #16]
 1045 004a 0FA8     		add	r0, sp, #60
 1046 004c 05F1EC07 		add	r7, r5, #236
 1047 0050 FFF7FEFF 		bl	_ZN5daisy16AdcChannelConfig10InitSingleE12dsy_gpio_pinNS0_15ConversionSpeedE
 1048              	.LVL93:
 186:tusenskona/src/tusenskona.cpp ****     // Initialize with the knob init struct w/ 2 members
 1049              		.loc 1 186 5 is_stmt 1 view .LVU228
ARM GAS  /var/folders/z2/7_lhr9dn53s9tj4s0rwtyswm0000gn/T//ccMKtZbG.s 			page 25


 186:tusenskona/src/tusenskona.cpp ****     // Initialize with the knob init struct w/ 2 members
 1050              		.loc 1 186 33 is_stmt 0 view .LVU229
 1051 0054 1320     		movs	r0, #19
 1052 0056 FFF7FEFF 		bl	_ZN5daisy9DaisySeed6GetPinEh
 1053              	.LVL94:
 1054 005a ADF81400 		strh	r0, [sp, #20]	@ movhi
 1055 005e 0222     		movs	r2, #2
 1056 0060 0599     		ldr	r1, [sp, #20]
 1057 0062 0DF14E00 		add	r0, sp, #78
 1058 0066 FFF7FEFF 		bl	_ZN5daisy16AdcChannelConfig10InitSingleE12dsy_gpio_pinNS0_15ConversionSpeedE
 1059              	.LVL95:
 189:tusenskona/src/tusenskona.cpp ****     // Make an array of pointers to the knobs.
 1060              		.loc 1 189 5 is_stmt 1 view .LVU230
 189:tusenskona/src/tusenskona.cpp ****     // Make an array of pointers to the knobs.
 1061              		.loc 1 189 18 is_stmt 0 view .LVU231
 1062 006a 0423     		movs	r3, #4
 1063 006c 06A9     		add	r1, sp, #24
 1064 006e 4046     		mov	r0, r8
 1065 0070 1A46     		mov	r2, r3
 1066 0072 FFF7FEFF 		bl	_ZN5daisy9AdcHandle4InitEPNS_16AdcChannelConfigEjNS0_12OverSamplingE
 1067              	.LVL96:
 191:tusenskona/src/tusenskona.cpp ****     knobs[KNOB_2] = &knob2;
 1068              		.loc 1 191 5 is_stmt 1 view .LVU232
 193:tusenskona/src/tusenskona.cpp ****     knobs[KNOB_4] = &knob4;
 1069              		.loc 1 193 21 is_stmt 0 view .LVU233
 1070 0076 05F1A803 		add	r3, r5, #168
 192:tusenskona/src/tusenskona.cpp ****     knobs[KNOB_3] = &knob3;
 1071              		.loc 1 192 21 view .LVU234
 1072 007a 05F18802 		add	r2, r5, #136
 193:tusenskona/src/tusenskona.cpp ****     knobs[KNOB_4] = &knob4;
 1073              		.loc 1 193 19 view .LVU235
 1074 007e C5F8F030 		str	r3, [r5, #240]
 194:tusenskona/src/tusenskona.cpp ****     for(int i = 0; i < KNOB_LAST; i++)
 1075              		.loc 1 194 21 view .LVU236
 1076 0082 05F1C803 		add	r3, r5, #200
 192:tusenskona/src/tusenskona.cpp ****     knobs[KNOB_3] = &knob3;
 1077              		.loc 1 192 19 view .LVU237
 1078 0086 C5E93A62 		strd	r6, r2, [r5, #232]
 193:tusenskona/src/tusenskona.cpp ****     knobs[KNOB_4] = &knob4;
 1079              		.loc 1 193 5 is_stmt 1 view .LVU238
 194:tusenskona/src/tusenskona.cpp ****     for(int i = 0; i < KNOB_LAST; i++)
 1080              		.loc 1 194 5 view .LVU239
 194:tusenskona/src/tusenskona.cpp ****     for(int i = 0; i < KNOB_LAST; i++)
 1081              		.loc 1 194 19 is_stmt 0 view .LVU240
 1082 008a C5F8F430 		str	r3, [r5, #244]
 1083              		.loc 1 195 5 is_stmt 1 view .LVU241
 1084              	.LVL97:
 1085              	.LBB49:
 1086              		.loc 1 195 22 view .LVU242
 1087              	.L49:
 196:tusenskona/src/tusenskona.cpp ****     {
 197:tusenskona/src/tusenskona.cpp ****         knobs[i]->Init(seed.adc.GetPtr(i), seed.AudioCallbackRate());
 1088              		.loc 1 197 9 discriminator 2 view .LVU243
 1089              		.loc 1 197 23 is_stmt 0 discriminator 2 view .LVU244
 1090 008e E1B2     		uxtb	r1, r4
 1091 0090 4046     		mov	r0, r8
 1092 0092 FFF7FEFF 		bl	_ZNK5daisy9AdcHandle6GetPtrEh
ARM GAS  /var/folders/z2/7_lhr9dn53s9tj4s0rwtyswm0000gn/T//ccMKtZbG.s 			page 26


 1093              	.LVL98:
 1094 0096 0146     		mov	r1, r0
 1095 0098 2846     		mov	r0, r5
 195:tusenskona/src/tusenskona.cpp ****     {
 1096              		.loc 1 195 5 discriminator 2 view .LVU245
 1097 009a 0134     		adds	r4, r4, #1
 1098              	.LVL99:
 1099              		.loc 1 197 23 discriminator 2 view .LVU246
 1100 009c 0191     		str	r1, [sp, #4]
 1101 009e FFF7FEFF 		bl	_ZNK5daisy9DaisySeed17AudioCallbackRateEv
 1102              	.LVL100:
 1103 00a2 0023     		movs	r3, #0
 1104 00a4 3046     		mov	r0, r6
 1105 00a6 DFED070A 		vldr.32	s1, .L51
 1106 00aa 0199     		ldr	r1, [sp, #4]
 1107 00ac 1A46     		mov	r2, r3
 1108 00ae FFF7FEFF 		bl	_ZN5daisy13AnalogControl4InitEPtfbbf
 1109              	.LVL101:
 195:tusenskona/src/tusenskona.cpp ****     {
 1110              		.loc 1 195 5 is_stmt 1 discriminator 2 view .LVU247
 195:tusenskona/src/tusenskona.cpp ****     {
 1111              		.loc 1 195 22 discriminator 2 view .LVU248
 195:tusenskona/src/tusenskona.cpp ****     {
 1112              		.loc 1 195 22 is_stmt 0 discriminator 2 view .LVU249
 1113 00b2 042C     		cmp	r4, #4
 1114 00b4 02D0     		beq	.L47
 1115              		.loc 1 197 16 view .LVU250
 1116 00b6 57F8046B 		ldr	r6, [r7], #4
 1117 00ba E8E7     		b	.L49
 1118              	.L47:
 1119              	.LBE49:
 198:tusenskona/src/tusenskona.cpp ****     }
 199:tusenskona/src/tusenskona.cpp **** }
 1120              		.loc 1 199 1 view .LVU251
 1121 00bc 18B0     		add	sp, sp, #96
 1122              		.cfi_def_cfa_offset 24
 1123              		@ sp needed
 1124 00be BDE8F081 		pop	{r4, r5, r6, r7, r8, pc}
 1125              	.LVL102:
 1126              	.L52:
 1127              		.loc 1 199 1 view .LVU252
 1128 00c2 00BF     		.align	2
 1129              	.L51:
 1130 00c4 6F12033B 		.word	990057071
 1131              		.cfi_endproc
 1132              	.LFE2591:
 1134              		.section	.text._ZN5daisy10Tusenskona4InitEb,"ax",%progbits
 1135              		.align	1
 1136              		.p2align 2,,3
 1137              		.global	_ZN5daisy10Tusenskona4InitEb
 1138              		.syntax unified
 1139              		.thumb
 1140              		.thumb_func
 1142              	_ZN5daisy10Tusenskona4InitEb:
 1143              	.LVL103:
 1144              	.LFB2568:
  28:tusenskona/src/tusenskona.cpp ****     seed.Configure();
ARM GAS  /var/folders/z2/7_lhr9dn53s9tj4s0rwtyswm0000gn/T//ccMKtZbG.s 			page 27


 1145              		.loc 1 28 1 is_stmt 1 view -0
 1146              		.cfi_startproc
 1147              		@ args = 0, pretend = 0, frame = 32
 1148              		@ frame_needed = 0, uses_anonymous_args = 0
  29:tusenskona/src/tusenskona.cpp ****     seed.Init(boost);
 1149              		.loc 1 29 5 view .LVU254
  28:tusenskona/src/tusenskona.cpp ****     seed.Configure();
 1150              		.loc 1 28 1 is_stmt 0 view .LVU255
 1151 0000 F0B5     		push	{r4, r5, r6, r7, lr}
 1152              		.cfi_def_cfa_offset 20
 1153              		.cfi_offset 4, -20
 1154              		.cfi_offset 5, -16
 1155              		.cfi_offset 6, -12
 1156              		.cfi_offset 7, -8
 1157              		.cfi_offset 14, -4
 1158 0002 0446     		mov	r4, r0
 1159 0004 89B0     		sub	sp, sp, #36
 1160              		.cfi_def_cfa_offset 56
  28:tusenskona/src/tusenskona.cpp ****     seed.Configure();
 1161              		.loc 1 28 1 view .LVU256
 1162 0006 0191     		str	r1, [sp, #4]
  29:tusenskona/src/tusenskona.cpp ****     seed.Init(boost);
 1163              		.loc 1 29 19 view .LVU257
 1164 0008 FFF7FEFF 		bl	_ZN5daisy9DaisySeed9ConfigureEv
 1165              	.LVL104:
  30:tusenskona/src/tusenskona.cpp ****     InitButtons();
 1166              		.loc 1 30 5 is_stmt 1 view .LVU258
  30:tusenskona/src/tusenskona.cpp ****     InitButtons();
 1167              		.loc 1 30 14 is_stmt 0 view .LVU259
 1168 000c 0199     		ldr	r1, [sp, #4]
 1169 000e 2046     		mov	r0, r4
 1170 0010 FFF7FEFF 		bl	_ZN5daisy9DaisySeed4InitEb
 1171              	.LVL105:
  31:tusenskona/src/tusenskona.cpp ****     InitEncoder();
 1172              		.loc 1 31 5 is_stmt 1 view .LVU260
 1173              	.LBB61:
 1174              	.LBI61:
 147:tusenskona/src/tusenskona.cpp **** {
 1175              		.loc 1 147 6 view .LVU261
 1176              	.LBB62:
 150:tusenskona/src/tusenskona.cpp ****     // button2
 1177              		.loc 1 150 5 view .LVU262
 150:tusenskona/src/tusenskona.cpp ****     // button2
 1178              		.loc 1 150 17 is_stmt 0 view .LVU263
 1179 0014 1B20     		movs	r0, #27
 1180 0016 FFF7FEFF 		bl	_ZN5daisy9DaisySeed6GetPinEh
 1181              	.LVL106:
 1182 001a 0346     		mov	r3, r0	@ movhi
 1183 001c 04F1F807 		add	r7, r4, #248
 1184 0020 9FED240A 		vldr.32	s0, .L57
 1185 0024 ADF81830 		strh	r3, [sp, #24]	@ movhi
 152:tusenskona/src/tusenskona.cpp **** 
 1186              		.loc 1 152 17 view .LVU264
 1187 0028 04F58475 		add	r5, r4, #264
 150:tusenskona/src/tusenskona.cpp ****     // button2
 1188              		.loc 1 150 17 view .LVU265
 1189 002c 0699     		ldr	r1, [sp, #24]
ARM GAS  /var/folders/z2/7_lhr9dn53s9tj4s0rwtyswm0000gn/T//ccMKtZbG.s 			page 28


 1190 002e 3846     		mov	r0, r7
 1191 0030 FFF7FEFF 		bl	_ZN5daisy6Switch4InitE12dsy_gpio_pinf
 1192              	.LVL107:
 152:tusenskona/src/tusenskona.cpp **** 
 1193              		.loc 1 152 5 is_stmt 1 view .LVU266
 152:tusenskona/src/tusenskona.cpp **** 
 1194              		.loc 1 152 17 is_stmt 0 view .LVU267
 1195 0034 1820     		movs	r0, #24
 1196 0036 FFF7FEFF 		bl	_ZN5daisy9DaisySeed6GetPinEh
 1197              	.LVL108:
 1198 003a 0346     		mov	r3, r0	@ movhi
 1199 003c 9FED1D0A 		vldr.32	s0, .L57
 1200 0040 2846     		mov	r0, r5
 1201 0042 ADF81C30 		strh	r3, [sp, #28]	@ movhi
 1202 0046 0799     		ldr	r1, [sp, #28]
 1203 0048 FFF7FEFF 		bl	_ZN5daisy6Switch4InitE12dsy_gpio_pinf
 1204              	.LVL109:
 154:tusenskona/src/tusenskona.cpp ****     buttons[BUTTON_2] = &button2;
 1205              		.loc 1 154 5 is_stmt 1 view .LVU268
 1206              	.LBE62:
 1207              	.LBE61:
 1208              	.LBB64:
 1209              	.LBB65:
 161:tusenskona/src/tusenskona.cpp ****     b     = seed.GetPin(ENC_B_PIN);
 1210              		.loc 1 161 34 is_stmt 0 view .LVU269
 1211 004c 1A20     		movs	r0, #26
 1212              	.LBE65:
 1213              	.LBE64:
 1214              	.LBB67:
 1215              	.LBB63:
 155:tusenskona/src/tusenskona.cpp **** }
 1216              		.loc 1 155 23 view .LVU270
 1217 004e C4E94675 		strd	r7, r5, [r4, #280]
 1218              	.LVL110:
 155:tusenskona/src/tusenskona.cpp **** }
 1219              		.loc 1 155 23 view .LVU271
 1220              	.LBE63:
 1221              	.LBE67:
  32:tusenskona/src/tusenskona.cpp ****     InitLeds();
 1222              		.loc 1 32 5 is_stmt 1 view .LVU272
 1223              	.LBB68:
 1224              	.LBI64:
 158:tusenskona/src/tusenskona.cpp **** {
 1225              		.loc 1 158 6 view .LVU273
 1226              	.LBB66:
 160:tusenskona/src/tusenskona.cpp ****     a     = seed.GetPin(ENC_A_PIN);
 1227              		.loc 1 160 5 view .LVU274
 161:tusenskona/src/tusenskona.cpp ****     b     = seed.GetPin(ENC_B_PIN);
 1228              		.loc 1 161 5 view .LVU275
 161:tusenskona/src/tusenskona.cpp ****     b     = seed.GetPin(ENC_B_PIN);
 1229              		.loc 1 161 34 is_stmt 0 view .LVU276
 1230 0052 FFF7FEFF 		bl	_ZN5daisy9DaisySeed6GetPinEh
 1231              	.LVL111:
 1232 0056 0346     		mov	r3, r0	@ movhi
 162:tusenskona/src/tusenskona.cpp ****     click = seed.GetPin(ENC_CLICK_PIN);
 1233              		.loc 1 162 34 view .LVU277
 1234 0058 1920     		movs	r0, #25
ARM GAS  /var/folders/z2/7_lhr9dn53s9tj4s0rwtyswm0000gn/T//ccMKtZbG.s 			page 29


 1235 005a 04F1E805 		add	r5, r4, #232
 161:tusenskona/src/tusenskona.cpp ****     b     = seed.GetPin(ENC_B_PIN);
 1236              		.loc 1 161 34 view .LVU278
 1237 005e ADF80C30 		strh	r3, [sp, #12]	@ movhi
 162:tusenskona/src/tusenskona.cpp ****     click = seed.GetPin(ENC_CLICK_PIN);
 1238              		.loc 1 162 5 is_stmt 1 view .LVU279
 162:tusenskona/src/tusenskona.cpp ****     click = seed.GetPin(ENC_CLICK_PIN);
 1239              		.loc 1 162 34 is_stmt 0 view .LVU280
 1240 0062 FFF7FEFF 		bl	_ZN5daisy9DaisySeed6GetPinEh
 1241              	.LVL112:
 1242 0066 0346     		mov	r3, r0	@ movhi
 163:tusenskona/src/tusenskona.cpp ****     encoder.Init(a, b, click);
 1243              		.loc 1 163 38 view .LVU281
 1244 0068 0E20     		movs	r0, #14
 162:tusenskona/src/tusenskona.cpp ****     click = seed.GetPin(ENC_CLICK_PIN);
 1245              		.loc 1 162 34 view .LVU282
 1246 006a ADF81030 		strh	r3, [sp, #16]	@ movhi
 163:tusenskona/src/tusenskona.cpp ****     encoder.Init(a, b, click);
 1247              		.loc 1 163 5 is_stmt 1 view .LVU283
 163:tusenskona/src/tusenskona.cpp ****     encoder.Init(a, b, click);
 1248              		.loc 1 163 38 is_stmt 0 view .LVU284
 1249 006e FFF7FEFF 		bl	_ZN5daisy9DaisySeed6GetPinEh
 1250              	.LVL113:
 1251 0072 ADF81400 		strh	r0, [sp, #20]	@ movhi
 164:tusenskona/src/tusenskona.cpp **** }
 1252              		.loc 1 164 5 is_stmt 1 view .LVU285
 164:tusenskona/src/tusenskona.cpp **** }
 1253              		.loc 1 164 17 is_stmt 0 view .LVU286
 1254 0076 04F14000 		add	r0, r4, #64
 1255 007a 9FED0E0A 		vldr.32	s0, .L57
 1256 007e 059B     		ldr	r3, [sp, #20]
 1257 0080 DDE90312 		ldrd	r1, r2, [sp, #12]
 1258 0084 FFF7FEFF 		bl	_ZN5daisy7Encoder4InitE12dsy_gpio_pinS1_S1_f
 1259              	.LVL114:
 164:tusenskona/src/tusenskona.cpp **** }
 1260              		.loc 1 164 17 view .LVU287
 1261              	.LBE66:
 1262              	.LBE68:
  33:tusenskona/src/tusenskona.cpp ****     InitKnobs();
 1263              		.loc 1 33 5 is_stmt 1 view .LVU288
  33:tusenskona/src/tusenskona.cpp ****     InitKnobs();
 1264              		.loc 1 33 13 is_stmt 0 view .LVU289
 1265 0088 2046     		mov	r0, r4
 1266 008a FFF7FEFF 		bl	_ZN5daisy10Tusenskona8InitLedsEv
 1267              	.LVL115:
  34:tusenskona/src/tusenskona.cpp ****     SetAudioBlockSize(48);
 1268              		.loc 1 34 5 is_stmt 1 view .LVU290
  34:tusenskona/src/tusenskona.cpp ****     SetAudioBlockSize(48);
 1269              		.loc 1 34 14 is_stmt 0 view .LVU291
 1270 008e 2046     		mov	r0, r4
 1271 0090 FFF7FEFF 		bl	_ZN5daisy10Tusenskona9InitKnobsEv
 1272              	.LVL116:
  35:tusenskona/src/tusenskona.cpp **** }
 1273              		.loc 1 35 5 is_stmt 1 view .LVU292
 1274              	.LBB69:
 1275              	.LBI69:
  77:tusenskona/src/tusenskona.cpp **** {
ARM GAS  /var/folders/z2/7_lhr9dn53s9tj4s0rwtyswm0000gn/T//ccMKtZbG.s 			page 30


 1276              		.loc 1 77 6 view .LVU293
 1277              	.LBB70:
  79:tusenskona/src/tusenskona.cpp ****     SetHidUpdateRates();
 1278              		.loc 1 79 5 view .LVU294
  79:tusenskona/src/tusenskona.cpp ****     SetHidUpdateRates();
 1279              		.loc 1 79 27 is_stmt 0 view .LVU295
 1280 0094 3021     		movs	r1, #48
 1281 0096 2046     		mov	r0, r4
 1282 0098 FFF7FEFF 		bl	_ZN5daisy9DaisySeed17SetAudioBlockSizeEj
 1283              	.LVL117:
  80:tusenskona/src/tusenskona.cpp **** }
 1284              		.loc 1 80 5 is_stmt 1 view .LVU296
 1285              	.LBB71:
 1286              	.LBI71:
  44:tusenskona/src/tusenskona.cpp **** {
 1287              		.loc 1 44 6 view .LVU297
 1288              	.LBB72:
  46:tusenskona/src/tusenskona.cpp ****     {
 1289              		.loc 1 46 22 view .LVU298
 1290              	.L54:
  48:tusenskona/src/tusenskona.cpp ****     }
 1291              		.loc 1 48 9 view .LVU299
  48:tusenskona/src/tusenskona.cpp ****     }
 1292              		.loc 1 48 16 is_stmt 0 view .LVU300
 1293 009c 55F8046B 		ldr	r6, [r5], #4
 1294              	.LVL118:
 1295              	.LBB73:
 1296              	.LBI73:
  99:tusenskona/src/tusenskona.cpp **** {
 1297              		.loc 1 99 7 is_stmt 1 view .LVU301
 1298              	.LBB74:
 101:tusenskona/src/tusenskona.cpp **** }
 1299              		.loc 1 101 5 view .LVU302
 101:tusenskona/src/tusenskona.cpp **** }
 1300              		.loc 1 101 34 is_stmt 0 view .LVU303
 1301 00a0 2046     		mov	r0, r4
 1302 00a2 FFF7FEFF 		bl	_ZNK5daisy9DaisySeed17AudioCallbackRateEv
 1303              	.LVL119:
 101:tusenskona/src/tusenskona.cpp **** }
 1304              		.loc 1 101 34 view .LVU304
 1305              	.LBE74:
 1306              	.LBE73:
  48:tusenskona/src/tusenskona.cpp ****     }
 1307              		.loc 1 48 32 view .LVU305
 1308 00a6 3046     		mov	r0, r6
 1309 00a8 FFF7FEFF 		bl	_ZN5daisy13AnalogControl13SetSampleRateEf
 1310              	.LVL120:
  46:tusenskona/src/tusenskona.cpp ****     {
 1311              		.loc 1 46 5 is_stmt 1 view .LVU306
  46:tusenskona/src/tusenskona.cpp ****     {
 1312              		.loc 1 46 22 view .LVU307
 1313 00ac BD42     		cmp	r5, r7
 1314 00ae F5D1     		bne	.L54
 1315              	.LBE72:
 1316              	.LBE71:
 1317              	.LBE70:
 1318              	.LBE69:
ARM GAS  /var/folders/z2/7_lhr9dn53s9tj4s0rwtyswm0000gn/T//ccMKtZbG.s 			page 31


  36:tusenskona/src/tusenskona.cpp **** 
 1319              		.loc 1 36 1 is_stmt 0 view .LVU308
 1320 00b0 09B0     		add	sp, sp, #36
 1321              		.cfi_def_cfa_offset 20
 1322              		@ sp needed
 1323 00b2 F0BD     		pop	{r4, r5, r6, r7, pc}
 1324              	.LVL121:
 1325              	.L58:
  36:tusenskona/src/tusenskona.cpp **** 
 1326              		.loc 1 36 1 view .LVU309
 1327              		.align	2
 1328              	.L57:
 1329 00b4 00000000 		.word	0
 1330              		.cfi_endproc
 1331              	.LFE2568:
 1333              		.text
 1334              	.Letext0:
 1335              		.file 3 "/Applications/ARM/arm-none-eabi/include/machine/_default_types.h"
 1336              		.file 4 "/Applications/ARM/arm-none-eabi/include/sys/_stdint.h"
 1337              		.file 5 "/Applications/ARM/arm-none-eabi/include/stdint.h"
 1338              		.file 6 "/Applications/ARM/lib/gcc/arm-none-eabi/10.3.1/include/stddef.h"
 1339              		.file 7 "/Applications/ARM/arm-none-eabi/include/c++/10.3.1/cmath"
 1340              		.file 8 "/Applications/ARM/arm-none-eabi/include/c++/10.3.1/bits/std_abs.h"
 1341              		.file 9 "/Applications/ARM/arm-none-eabi/include/c++/10.3.1/cstdlib"
 1342              		.file 10 "/Applications/ARM/arm-none-eabi/include/c++/10.3.1/cstdint"
 1343              		.file 11 "/Applications/ARM/arm-none-eabi/include/c++/10.3.1/type_traits"
 1344              		.file 12 "/Applications/ARM/arm-none-eabi/include/c++/10.3.1/debug/debug.h"
 1345              		.file 13 "/Applications/ARM/arm-none-eabi/include/c++/10.3.1/arm-none-eabi/thumb/v7e-m+dp/hard/bit
 1346              		.file 14 "/Applications/ARM/arm-none-eabi/include/c++/10.3.1/bits/algorithmfwd.h"
 1347              		.file 15 "/Applications/ARM/arm-none-eabi/include/c++/10.3.1/bits/stl_pair.h"
 1348              		.file 16 "/Applications/ARM/arm-none-eabi/include/c++/10.3.1/bits/exception_ptr.h"
 1349              		.file 17 "/Applications/ARM/arm-none-eabi/include/c++/10.3.1/cstdarg"
 1350              		.file 18 "/Applications/ARM/arm-none-eabi/include/c++/10.3.1/cstdio"
 1351              		.file 19 "/Applications/ARM/arm-none-eabi/include/c++/10.3.1/cstring"
 1352              		.file 20 "/Applications/ARM/arm-none-eabi/include/c++/10.3.1/bits/predefined_ops.h"
 1353              		.file 21 "/Applications/ARM/arm-none-eabi/include/sys/_types.h"
 1354              		.file 22 "/Applications/ARM/arm-none-eabi/include/sys/reent.h"
 1355              		.file 23 "/Applications/ARM/arm-none-eabi/include/sys/lock.h"
 1356              		.file 24 "/Applications/ARM/arm-none-eabi/include/math.h"
 1357              		.file 25 "/Applications/ARM/arm-none-eabi/include/stdlib.h"
 1358              		.file 26 "/Applications/ARM/arm-none-eabi/include/c++/10.3.1/math.h"
 1359              		.file 27 "/Applications/ARM/arm-none-eabi/include/c++/10.3.1/stdlib.h"
 1360              		.file 28 "./libDaisy//src/daisy_core.h"
 1361              		.file 29 "./libDaisy//src/per/tim.h"
 1362              		.file 30 "./libDaisy//src/sys/system.h"
 1363              		.file 31 "./libDaisy//src/per/qspi.h"
 1364              		.file 32 "./libDaisy//src/per/dac.h"
 1365              		.file 33 "./libDaisy//src/per/sai.h"
 1366              		.file 34 "./libDaisy//src/hid/audio.h"
 1367              		.file 35 "./libDaisy//src/per/adc.h"
 1368              		.file 36 "./libDaisy//src/hid/usb.h"
 1369              		.file 37 "./libDaisy//src/hid/switch.h"
 1370              		.file 38 "./libDaisy//src/hid/encoder.h"
 1371              		.file 39 "./libDaisy//src/util/wav_format.h"
 1372              		.file 40 "./libDaisy//src/hid/led.h"
 1373              		.file 41 "./libDaisy//src/util/color.h"
 1374              		.file 42 "./libDaisy//src/hid/rgb_led.h"
ARM GAS  /var/folders/z2/7_lhr9dn53s9tj4s0rwtyswm0000gn/T//ccMKtZbG.s 			page 32


 1375              		.file 43 "./libDaisy//src/dev/max11300.h"
 1376              		.file 44 "./libDaisy//src/daisy_seed.h"
 1377              		.file 45 "tusenskona/src/tusenskona.h"
 1378              		.file 46 "./libDaisy//src/per/gpio.h"
 1379              		.file 47 "./libDaisy//src/dev/sdram.h"
 1380              		.file 48 "/Applications/ARM/lib/gcc/arm-none-eabi/10.3.1/include/stdarg.h"
 1381              		.file 49 "/Applications/ARM/arm-none-eabi/include/stdio.h"
 1382              		.file 50 "/Applications/ARM/arm-none-eabi/include/string.h"
 1383              		.file 51 "./libDaisy//src/dev/sr_595.h"
 1384              		.file 52 "<built-in>"
ARM GAS  /var/folders/z2/7_lhr9dn53s9tj4s0rwtyswm0000gn/T//ccMKtZbG.s 			page 33

